(lp0
I35
aI31
aI0
aI44
aI21
aI76
aI27
aI12
aI18
aI44
aI32
aI55
aI17
aI15
aI60
aI24
aI39
aI30
aI40
aI83
aI57
aI61
aI40
aI27
aI81
aI17
aI74
aI69
aI34
aI43
aI25
aI26
aI48
aI28
aI53
aI53
aI50
aI64
aI34
aI14
aI73
aI52
aI42
aI55
aI30
aI71
aI47
aI31
aI69
aI33
aI32
aI29
aI50
aI46
aI35
aI53
aI11
aI56
aI85
aI25
aI0
aI33
aI85
aI61
aI71
aI28
aI33
aI36
aI27
aI31
aI39
aI17
aI17
aI62
aI50
aI59
aI32
aI32
aI37
aI52
aI55
aI0
aI44
aI18
aI31
aI34
aI29
aI44
aI26
aI42
aI69
aI23
aI80
aI42
aI15
aI23
aI54
aI43
aI85
aI81
aI33
aI33
aI61
aI37
aI70
aI46
aI14
aI50
aI23
aI38
aI39
aI68
aI38
aI39
aI28
aI45
aI38
aI33
aI73
aI34
aI31
aI49
aI23
aI27
aI40
aI66
aI62
aI30
aI54
aI75
aI52
aI18
aI69
aI26
aI16
aI20
aI35
aI25
aI15
aI67
aI54
aI23
aI13
aI38
aI29
aI47
aI40
aI61
aI32
aI67
aI57
aI8
aI24
aI33
aI72
aI49
aI59
aI31
aI42
aI48
aI15
aI84
aI24
aI61
aI37
aI24
aI18
aI17
aI32
aI30
aI62
aI53
aI81
aI26
aI31
aI36
aI28
aI46
aI63
aI26
aI40
aI14
aI28
aI35
aI74
aI35
aI44
aI65
aI33
aI0
aI15
aI36
aI12
aI48
aI60
aI71
aI37
aI29
aI41
aI53
aI44
aI52
aI44
aI63
aI39
aI48
aI28
aI66
aI62
aI20
aI32
aI62
aI30
aI41
aI24
aI40
aI78
aI45
aI0
aI29
aI14
aI44
aI25
aI39
aI39
aI48
aI31
aI48
aI49
aI73
aI67
aI55
aI75
aI48
aI22
aI56
aI17
aI66
aI53
aI41
aI20
aI36
aI27
aI23
aI26
aI27
aI20
aI24
aI42
aI50
aI29
aI22
aI46
aI52
aI49
aI34
aI15
aI52
aI35
aI6
aI23
aI45
aI35
aI34
aI45
aI25
aI38
aI66
aI52
aI61
aI34
aI62
aI21
aI43
aI59
aI32
aI22
aI50
aI28
aI55
aI55
aI41
aI57
aI70
aI43
aI28
aI53
aI57
aI41
aI32
aI29
aI61
aI64
aI35
aI28
aI63
aI24
aI69
aI55
aI30
aI30
aI60
aI53
aI23
aI28
aI17
aI64
aI27
aI39
aI57
aI61
aI29
aI79
aI34
aI29
aI32
aI28
aI30
aI36
aI31
aI3
aI59
aI78
aI34
aI56
aI51
aI30
aI15
aI48
aI11
aI35
aI16
aI80
aI30
aI18
aI34
aI42
aI14
aI47
aI18
aI56
aI35
aI35
aI73
aI45
aI45
aI17
aI23
aI35
aI76
aI42
aI24
aI35
aI59
aI29
aI31
aI55
aI34
aI37
aI22
aI15
aI59
aI22
aI21
aI36
aI20
aI50
aI37
aI41
aI19
aI65
aI17
aI18
aI83
aI31
aI48
aI47
aI45
aI56
aI23
aI49
aI43
aI43
aI21
aI57
aI75
aI40
aI22
aI60
aI45
aI72
aI18
aI62
aI39
aI49
aI31
aI41
aI40
aI60
aI28
aI44
aI47
aI67
aI64
aI39
aI21
aI36
aI33
aI49
aI33
aI49
aI81
aI18
aI24
aI46
aI37
aI38
aI49
aI77
aI24
aI62
aI61
aI28
aI49
aI53
aI54
aI48
aI22
aI30
aI35
aI37
aI54
aI40
aI45
aI56
aI26
aI51
aI42
aI66
aI57
aI55
aI51
aI46
aI44
aI59
aI65
aI37
aI27
aI62
aI46
aI26
aI29
aI79
aI32
aI86
aI38
aI29
aI7
aI27
aI28
aI76
aI27
aI33
aI59
aI35
aI54
aI59
aI35
aI41
aI49
aI67
aI42
aI76
aI52
aI45
aI20
aI53
aI68
aI51
aI53
aI34
aI0
aI65
aI12
aI33
aI59
aI18
aI63
aI23
aI38
aI38
aI33
aI27
aI36
aI19
aI32
aI47
aI45
aI32
aI40
aI38
aI36
aI57
aI65
aI85
aI22
aI9
aI44
aI58
aI49
aI43
aI30
aI85
aI85
aI33
aI38
aI73
aI63
aI42
aI38
aI45
aI32
aI19
aI56
aI74
aI28
aI52
aI67
aI20
aI57
aI25
aI23
aI72
aI29
aI33
aI38
aI15
aI69
aI38
aI83
aI41
aI28
aI13
aI30
aI14
aI54
aI20
aI32
aI18
aI18
aI54
aI65
aI48
aI50
aI39
aI84
aI41
aI61
aI48
aI30
aI37
aI42
aI45
aI69
aI35
aI17
aI24
aI49
aI41
aI59
aI25
aI57
aI58
aI27
aI20
aI23
aI8
aI77
aI12
aI28
aI53
aI26
aI52
aI19
aI35
aI68
aI11
aI78
aI51
aI38
aI30
aI39
aI28
aI38
aI13
aI48
aI85
aI74
aI7
aI25
aI69
aI74
aI22
aI16
aI28
aI51
aI50
aI29
aI11
aI59
a.