(lp0
I11
aI17
aI20
aI17
aI40
aI53
aI64
aI74
aI42
aI17
aI26
aI14
aI12
aI37
aI42
aI47
aI18
aI11
aI40
aI41
aI14
aI47
aI26
aI2
aI35
aI52
aI0
aI19
aI38
aI60
aI12
aI11
aI13
aI0
aI0
aI0
aI0
aI16
aI13
aI9
aI64
aI61
aI39
aI27
aI4
aI6
aI36
aI83
aI41
aI35
aI34
aI19
aI64
aI18
aI27
aI19
aI24
aI37
aI41
aI49
aI66
aI28
aI24
aI7
aI26
aI42
aI50
aI66
aI4
aI21
aI8
aI14
aI28
aI29
aI34
aI41
aI56
aI31
aI75
aI12
aI14
aI29
aI44
aI56
aI2
aI49
aI0
aI20
aI27
aI13
aI46
aI34
aI13
aI56
aI70
aI38
aI46
aI82
aI37
aI51
aI7
aI31
aI19
aI8
aI24
aI41
aI2
aI17
aI9
aI16
aI52
aI32
aI67
aI74
aI66
aI19
aI51
aI70
aI14
aI29
aI1
aI21
aI47
aI60
aI12
aI6
aI25
aI66
aI3
aI11
aI29
aI17
aI21
aI14
aI16
aI11
aI16
aI3
aI2
aI28
aI26
aI35
aI13
aI24
aI10
aI0
aI17
aI49
aI2
aI22
aI14
aI26
aI2
aI0
aI25
aI20
aI32
aI18
aI2
aI2
aI4
aI11
aI43
aI59
aI8
aI47
aI12
aI14
aI27
aI31
aI6
aI19
aI24
aI44
aI8
aI12
aI8
aI0
aI5
aI7
aI26
aI36
aI1
aI8
aI0
aI14
aI41
aI72
aI11
aI6
aI26
aI34
aI52
aI23
aI15
aI18
aI64
aI85
aI57
aI13
aI10
aI21
aI1
aI2
aI44
aI22
aI44
aI31
aI36
aI32
aI70
aI24
aI4
aI18
aI13
aI10
aI15
aI39
aI48
aI66
aI43
aI30
aI0
aI28
aI37
aI52
aI76
aI0
aI18
aI1
aI13
aI24
aI3
aI36
aI35
aI19
aI12
aI34
aI41
aI64
aI71
aI58
aI24
aI9
aI13
aI30
aI41
aI43
aI11
aI51
aI36
aI9
aI20
aI29
aI5
aI12
aI19
aI34
aI41
aI7
aI20
aI37
aI34
aI49
aI15
aI9
aI13
aI12
aI20
aI43
aI12
aI6
aI7
aI12
aI15
aI22
aI20
aI29
aI38
aI40
aI50
aI5
aI8
aI27
aI35
aI51
aI50
aI68
aI18
aI11
aI20
aI1
aI26
aI16
aI0
aI19
aI14
aI4
aI34
aI56
aI68
aI47
aI48
aI14
aI33
aI18
aI27
aI6
aI40
aI22
aI47
aI66
aI60
aI60
aI53
aI15
aI30
aI26
aI40
aI48
aI16
aI27
aI34
aI25
aI56
aI7
aI15
aI39
aI76
aI13
aI8
aI28
aI43
aI18
aI39
aI58
aI64
aI58
aI78
aI81
aI37
aI22
aI52
aI10
aI9
aI53
aI45
aI51
aI18
aI22
aI50
aI22
aI37
aI39
aI24
aI14
aI5
aI30
aI42
aI51
aI19
aI18
aI6
aI27
aI16
aI32
aI38
aI50
aI6
aI6
aI0
aI29
aI52
aI14
aI19
aI21
aI4
aI34
aI42
aI31
aI19
aI17
aI21
aI20
aI19
aI62
aI43
aI20
aI15
aI40
aI40
aI20
aI45
aI29
aI63
aI44
aI28
aI4
aI10
aI67
aI18
aI10
aI6
aI34
aI42
aI30
aI43
aI25
aI10
aI27
aI38
aI20
aI34
aI13
aI17
aI28
aI59
aI86
aI0
aI25
aI38
aI72
aI34
aI47
aI69
aI57
aI66
aI52
aI27
aI33
aI8
aI3
aI17
aI0
aI34
aI0
aI8
aI17
aI44
aI28
aI57
aI42
aI44
aI28
aI38
aI17
aI18
aI23
aI1
aI0
aI1
aI14
aI18
aI31
aI30
aI12
aI56
aI2
aI16
aI67
aI41
aI28
aI5
aI8
aI29
aI11
aI26
aI43
aI26
aI36
aI12
aI18
aI31
aI44
aI12
aI0
aI16
aI0
aI11
aI25
aI57
aI10
aI1
aI4
aI44
aI16
aI12
aI6
aI34
aI5
aI11
aI1
aI13
aI22
aI37
aI62
aI74
aI21
aI36
aI50
aI20
aI57
aI27
aI28
aI0
aI48
aI60
aI22
aI6
aI23
aI26
aI38
aI48
aI6
aI29
aI44
aI15
aI2
aI6
aI36
aI20
aI53
aI64
aI70
aI62
aI26
aI10
aI14
aI10
aI17
aI0
aI0
aI15
aI38
aI46
aI12
aI3
aI26
aI37
aI64
aI7
aI21
aI30
aI37
aI9
aI34
aI55
aI82
aI15
aI10
aI31
aI35
aI9
aI47
aI10
aI21
aI16
aI11
aI12
aI7
aI12
aI21
aI0
aI33
aI36
aI52
aI66
aI28
aI34
aI8
aI0
aI13
aI0
aI21
aI12
aI34
aI7
aI62
aI43
aI6
aI16
aI39
aI12
aI5
aI60
aI44
aI74
aI5
aI55
aI9
aI51
aI14
aI17
aI31
aI1
aI15
aI29
aI36
aI55
aI46
aI13
aI6
aI25
aI10
aI8
aI18
aI13
aI27
aI11
aI12
aI20
aI10
aI15
aI16
aI1
aI27
aI25
aI47
aI1
aI31
aI77
aI45
aI50
aI86
aI13
aI9
aI18
aI24
aI36
aI23
aI50
aI37
aI3
aI8
aI27
aI41
aI26
aI15
aI17
aI22
aI34
aI12
aI63
aI3
aI22
aI31
aI44
aI6
aI10
aI3
aI10
aI42
aI10
aI3
aI3
aI38
aI9
aI53
aI86
aI48
aI2
aI23
aI59
aI48
aI9
aI3
aI16
aI40
aI50
aI65
aI86
aI3
aI8
aI1
aI35
aI48
aI14
aI28
aI16
aI26
aI15
aI1
aI29
aI51
aI32
aI43
aI21
aI7
aI13
aI9
aI16
aI72
aI67
aI86
aI36
aI48
aI20
aI33
aI5
aI7
aI12
aI0
aI16
aI60
aI45
aI7
aI12
aI21
aI36
aI18
aI35
aI11
aI17
aI0
aI38
aI55
aI75
aI66
aI52
aI21
aI30
aI21
aI8
aI23
aI13
aI15
aI22
aI27
aI21
aI34
aI18
aI38
aI51
aI28
aI12
aI57
aI28
aI18
aI22
aI12
aI34
aI0
aI41
aI45
aI52
aI49
aI53
aI66
aI68
aI76
aI3
aI6
aI6
aI9
aI15
aI21
aI7
aI48
aI52
aI54
aI61
aI74
aI27
aI45
aI0
aI25
aI67
aI8
aI68
aI80
aI48
aI50
aI52
aI56
aI56
aI22
aI56
aI78
aI68
aI52
aI56
aI50
aI48
aI36
aI4
aI12
aI33
aI14
aI6
aI31
aI54
aI33
aI0
aI65
aI83
aI48
aI60
aI66
aI82
aI2
aI19
aI0
aI0
aI33
aI82
aI0
aI0
aI0
aI0
aI45
aI34
aI22
aI19
aI38
aI52
aI54
aI42
aI25
aI63
aI22
aI40
aI32
aI39
aI46
aI43
aI29
aI16
aI6
aI50
aI65
aI0
aI60
aI66
aI52
aI62
aI51
aI13
aI0
aI0
aI0
aI6
aI31
aI15
aI55
aI53
aI7
aI23
aI4
aI65
aI26
aI34
aI42
aI7
aI13
aI35
aI15
aI9
aI22
aI34
aI44
aI0
aI2
aI10
aI20
aI12
aI25
aI30
aI4
aI23
aI47
aI14
aI37
aI36
aI34
aI23
aI0
aI15
aI22
aI53
aI13
aI12
aI3
aI0
aI33
aI53
aI21
aI11
aI51
aI65
aI14
aI16
aI26
aI38
aI55
aI52
aI32
aI30
aI36
aI0
aI18
aI15
aI0
aI7
aI22
aI3
aI12
aI9
aI33
aI17
aI0
aI2
aI8
aI15
aI43
aI54
aI62
aI63
aI2
aI26
aI12
aI9
aI19
aI39
aI29
aI32
aI13
aI18
aI24
aI2
aI5
aI0
aI11
aI0
aI17
aI62
aI11
aI17
aI21
aI23
aI28
aI9
aI0
aI5
aI24
aI1
aI17
aI18
aI24
aI23
aI4
aI9
aI13
aI10
aI28
aI61
aI11
aI39
aI29
aI49
aI23
aI19
aI5
aI26
aI38
aI12
aI82
aI7
aI27
aI6
aI14
aI22
aI19
aI9
aI9
aI7
aI17
aI25
aI43
aI44
aI58
aI14
aI28
aI50
aI68
aI8
aI16
aI21
aI4
aI1
aI6
aI13
aI31
aI37
aI12
aI18
aI25
aI34
aI45
aI58
aI11
aI17
aI13
aI7
aI0
aI11
aI33
aI42
aI44
aI61
aI42
aI69
aI70
aI34
aI15
aI19
aI2
aI36
aI59
aI52
aI42
aI64
aI20
aI18
aI32
aI35
aI30
aI6
aI31
aI44
aI54
aI4
aI34
aI12
aI19
aI4
aI11
aI6
aI31
aI7
aI2
aI18
aI36
aI1
aI18
aI0
aI9
aI38
aI42
aI26
aI15
aI3
aI24
aI32
aI25
aI37
aI7
aI21
aI31
aI11
aI39
aI9
aI0
aI38
aI8
aI19
aI3
aI14
aI33
aI56
aI11
aI44
aI9
aI19
aI51
aI29
aI61
aI51
aI44
aI65
aI70
aI19
aI20
aI26
aI45
aI0
aI17
aI34
aI22
aI2
aI28
aI13
aI24
aI8
aI0
aI19
aI27
aI48
aI44
aI13
aI20
aI24
aI18
aI61
aI33
aI1
aI1
aI7
aI16
aI4
aI9
aI7
aI18
aI21
aI18
aI47
aI61
aI5
aI15
aI9
aI17
aI20
aI22
aI14
aI37
aI29
aI21
aI47
aI10
aI21
aI29
aI47
aI55
aI3
aI11
aI11
aI25
aI29
aI32
aI38
aI51
aI72
aI0
aI23
aI26
aI6
aI24
aI30
aI33
aI14
aI35
aI38
aI5
aI20
aI3
aI22
aI17
aI43
aI65
aI38
aI17
aI0
aI16
aI5
aI1
aI10
aI25
aI37
aI39
aI43
aI45
aI0
aI20
aI12
aI14
aI40
aI56
aI65
aI13
aI19
aI27
aI28
aI23
aI18
aI16
aI8
aI34
aI0
aI37
aI10
aI27
aI41
aI56
aI20
aI20
aI38
aI5
aI24
aI3
aI15
aI36
aI21
aI42
aI43
aI13
aI20
aI12
aI2
aI10
aI17
aI23
aI2
aI28
aI33
aI0
aI27
aI16
aI35
aI50
aI19
aI3
aI20
aI26
aI12
aI6
aI26
aI11
aI20
aI21
aI20
aI29
aI24
aI20
aI47
aI22
aI0
aI0
aI11
aI0
aI13
aI0
aI22
aI15
aI42
aI58
aI69
aI31
aI24
aI19
aI36
aI8
aI12
aI30
aI24
aI17
aI0
aI13
aI18
aI8
aI24
aI0
aI26
aI0
aI9
aI35
aI51
aI54
aI36
aI37
aI26
aI57
aI14
aI18
aI22
aI21
aI28
aI23
aI25
aI0
aI13
aI21
aI55
aI43
aI38
aI27
aI5
aI44
aI26
aI55
aI22
aI31
aI37
aI27
aI46
aI25
aI32
aI38
aI11
aI19
aI19
aI40
aI11
aI27
aI18
aI50
aI8
aI11
aI29
aI44
aI30
aI2
aI10
aI21
aI43
aI64
aI14
aI21
aI10
aI19
aI41
aI6
aI0
aI6
aI4
aI24
aI55
aI66
aI17
aI18
aI9
aI35
aI19
aI21
aI24
aI50
aI21
aI33
aI54
aI43
aI12
aI19
aI8
aI25
aI13
aI26
aI62
aI56
aI24
aI41
aI12
aI16
aI31
aI9
aI33
aI0
aI11
aI16
aI24
aI38
aI62
aI77
aI0
aI7
aI33
aI11
aI36
aI52
aI76
aI41
aI3
aI19
aI55
aI6
aI11
aI23
aI31
aI50
aI12
aI25
aI26
aI2
aI19
aI42
aI37
aI17
aI5
aI19
aI0
aI29
aI32
aI17
aI10
aI20
aI35
aI2
aI17
aI29
aI45
aI27
aI7
aI58
aI52
aI51
aI46
aI0
aI16
aI20
aI8
aI12
aI0
aI18
aI14
aI3
aI12
aI10
aI41
aI31
aI48
aI47
aI63
aI5
aI21
aI27
aI43
aI15
aI49
aI5
aI22
aI11
aI22
aI41
aI48
aI1
aI6
aI1
aI7
aI10
aI34
aI58
aI14
aI38
aI24
aI52
aI71
aI82
aI17
aI27
aI0
aI0
aI21
aI41
aI24
aI13
aI11
aI31
aI45
aI37
aI6
aI28
aI48
aI60
aI5
aI45
aI22
aI1
aI24
aI0
aI18
aI0
aI5
aI3
aI4
aI1
aI17
aI33
aI17
aI29
aI37
aI55
aI65
aI52
aI39
aI17
aI41
aI54
aI60
aI63
aI9
aI23
aI48
aI12
aI38
aI42
aI59
aI44
aI28
aI1
aI30
aI23
aI22
aI40
aI13
aI1
aI14
aI10
aI42
aI20
aI57
aI31
aI43
aI52
aI54
aI44
aI13
aI6
aI25
aI48
aI7
aI9
aI55
aI44
aI26
aI23
aI34
aI5
aI11
aI26
aI0
aI7
aI11
aI35
aI55
aI57
aI65
aI4
aI22
aI5
aI14
aI24
aI29
aI34
aI40
aI46
aI6
aI1
aI19
aI28
aI27
aI24
aI3
aI17
aI24
aI63
aI8
aI1
aI47
aI56
aI72
aI19
aI28
aI36
aI70
aI28
aI44
aI29
aI17
aI33
aI19
aI12
aI21
aI32
aI53
aI55
aI6
aI23
aI3
aI5
aI6
aI9
aI15
aI44
aI31
aI77
aI9
aI19
aI17
aI9
aI8
aI34
aI40
aI76
aI12
aI51
aI71
aI83
aI16
aI70
aI74
aI1
aI9
aI12
aI26
aI1
aI8
aI15
aI24
aI38
aI28
aI23
aI1
aI38
aI46
aI55
aI14
aI16
aI24
aI27
aI35
aI47
aI51
aI61
aI70
aI24
aI22
aI14
aI56
aI67
aI20
aI28
aI16
aI4
aI15
aI34
aI54
aI63
aI42
aI23
aI0
aI6
aI37
aI5
aI3
aI38
aI37
aI32
aI57
aI50
aI21
aI26
aI44
aI25
aI0
aI12
aI12
aI22
aI27
aI46
aI41
aI33
aI57
aI16
aI4
aI43
aI18
aI51
aI15
aI9
aI1
aI11
aI5
aI26
aI34
aI6
aI9
aI48
aI70
aI13
aI50
aI55
aI71
aI29
aI21
aI74
aI17
aI68
aI63
aI60
aI25
aI23
aI16
aI49
aI60
aI49
aI45
aI28
aI36
aI5
aI29
aI19
aI10
aI6
aI12
aI5
aI31
aI8
aI60
aI79
aI41
aI75
aI29
aI37
aI45
aI58
aI50
aI52
aI27
aI39
aI21
aI36
aI57
aI24
aI37
aI44
aI64
aI38
aI5
aI17
aI33
aI36
aI33
aI8
aI23
aI0
aI16
aI43
aI0
aI5
aI0
aI3
aI9
aI25
aI36
aI8
aI31
aI48
aI76
aI8
aI25
aI36
aI17
aI33
aI18
aI0
aI40
aI40
aI0
aI63
aI40
aI0
aI7
aI21
aI42
aI63
aI34
aI9
aI29
aI22
aI31
aI3
aI3
aI55
aI21
aI45
aI9
aI21
aI24
aI15
aI10
aI0
aI7
aI38
aI10
aI62
aI70
aI0
aI17
aI19
aI24
aI5
aI0
aI16
aI23
aI8
aI12
aI17
aI24
aI34
aI40
aI10
aI26
aI12
aI18
aI45
aI23
aI13
aI12
aI23
aI13
aI51
aI27
aI3
aI7
aI36
aI43
aI18
aI0
aI6
aI15
aI20
aI0
aI1
aI73
aI67
aI63
aI56
aI56
aI26
aI23
aI21
aI4
aI13
aI11
aI4
aI3
aI8
aI17
aI29
aI6
aI19
aI29
aI48
aI78
aI36
aI41
aI31
aI22
aI26
aI28
aI37
aI23
aI37
aI23
aI5
aI26
aI38
aI18
aI23
aI25
aI37
aI23
aI16
aI3
aI0
aI13
aI33
aI0
aI10
aI0
aI29
aI9
aI44
aI60
aI75
aI1
aI12
aI25
aI2
aI24
aI28
aI53
aI56
aI13
aI4
aI51
aI77
aI1
aI2
aI7
aI7
aI22
aI16
aI27
aI66
aI41
aI36
aI56
aI76
aI54
aI45
aI34
aI51
aI65
aI8
aI15
aI40
aI76
aI69
aI38
aI40
aI12
aI25
aI23
aI34
aI52
aI23
aI38
aI21
aI39
aI2
aI9
aI5
aI9
aI26
aI8
aI34
aI4
aI28
aI2
aI16
aI1
aI0
aI11
aI38
aI67
aI7
aI0
aI24
aI10
aI29
aI33
aI0
aI32
aI21
aI52
aI68
aI52
aI48
aI21
aI1
aI10
aI2
aI22
aI54
aI9
aI9
aI14
aI33
aI26
aI45
aI67
aI76
aI64
aI67
aI40
aI46
aI71
aI55
aI62
aI24
aI39
aI50
aI30
aI21
aI17
aI10
aI17
aI11
aI20
aI10
aI18
aI42
aI50
aI15
aI11
aI29
aI41
aI17
aI27
aI16
aI3
aI13
aI12
aI4
aI24
aI53
aI14
aI0
aI0
aI28
aI4
aI8
aI32
aI11
aI12
aI23
aI32
aI36
aI0
aI21
aI27
aI39
aI49
aI61
aI19
aI31
aI33
aI35
aI54
aI3
aI3
aI10
aI6
aI25
aI12
aI0
aI4
aI24
aI31
aI27
aI26
aI10
aI2
aI37
aI1
aI18
aI7
aI4
aI12
aI26
aI41
aI6
aI18
aI15
aI26
aI6
aI16
aI24
aI31
aI32
aI11
aI27
aI1
aI8
aI3
aI0
aI2
aI9
aI17
aI14
aI25
aI6
aI3
aI19
aI31
aI10
aI7
aI42
aI35
aI28
aI24
aI11
aI15
aI24
aI24
aI24
aI26
aI4
aI30
aI10
aI48
aI80
aI59
aI81
aI87
aI63
aI6
aI13
aI28
aI3
aI11
aI18
aI15
aI23
aI25
aI35
aI82
aI34
aI1
aI65
aI48
aI27
aI4
aI19
aI0
aI0
aI47
aI14
aI0
aI4
aI1
aI7
aI29
aI7
aI0
aI30
aI30
aI32
aI33
aI35
aI29
aI15
aI9
aI13
aI50
aI18
aI39
aI12
aI22
aI0
aI6
aI8
aI18
aI37
aI31
aI0
aI43
aI30
aI0
aI0
aI22
aI42
aI15
aI21
aI17
aI0
aI0
aI19
aI22
aI18
aI0
aI42
aI41
aI62
aI39
aI15
aI24
aI55
aI27
aI0
aI69
aI50
aI0
aI12
aI14
aI32
aI44
aI36
aI43
aI19
aI48
aI62
aI18
aI37
aI72
aI58
aI49
aI86
aI5
aI72
aI41
aI17
aI33
aI45
aI57
aI48
aI21
aI6
aI19
aI29
aI41
aI48
aI22
aI69
aI39
aI83
aI14
aI23
aI20
aI6
aI30
aI2
aI29
aI7
aI13
aI13
aI37
aI3
aI8
aI16
aI3
aI9
aI19
aI26
aI60
aI71
aI2
aI12
aI25
aI19
aI8
aI26
aI32
aI52
aI0
aI17
aI31
aI68
aI44
aI29
aI27
aI72
aI20
aI17
aI50
aI57
aI0
aI9
aI9
aI24
aI18
aI42
aI48
aI32
aI57
aI20
aI30
aI21
aI27
aI37
aI65
aI68
aI22
aI74
aI31
aI34
aI19
aI19
aI24
aI41
aI18
aI7
aI62
aI17
aI29
aI47
aI30
aI0
aI18
aI22
aI5
aI18
aI0
aI16
aI29
aI26
aI28
aI30
aI18
aI12
aI36
aI41
aI72
aI33
aI21
aI11
aI0
aI67
aI77
aI86
aI2
aI16
aI31
aI0
aI33
aI55
aI10
aI65
aI37
aI15
aI26
aI58
aI81
aI85
aI47
aI1
aI4
aI2
aI9
aI12
aI0
aI8
aI18
aI34
aI38
aI1
aI3
aI6
aI18
aI22
aI13
aI28
aI33
aI10
aI21
aI7
aI19
aI25
aI12
aI6
aI9
aI44
aI42
aI25
aI26
aI30
aI35
aI43
aI2
aI22
aI7
aI11
aI18
aI17
aI30
aI71
aI82
aI0
aI11
aI26
aI11
aI31
aI45
aI61
aI41
aI25
aI1
aI13
aI9
aI8
aI0
aI16
aI25
aI6
aI17
aI26
aI2
aI39
aI23
aI6
aI2
aI3
aI5
aI23
aI5
aI58
aI74
aI12
aI0
aI29
aI2
aI15
aI25
aI39
aI5
aI26
aI1
aI5
aI7
aI15
aI8
aI6
aI0
aI4
aI15
aI21
aI24
aI27
aI33
aI40
aI42
aI6
aI13
aI29
aI0
aI2
aI11
aI38
aI29
aI20
aI4
aI25
aI33
aI12
aI40
aI52
aI65
aI51
aI18
aI13
aI32
aI11
aI21
aI0
aI53
aI3
aI13
aI22
aI2
aI19
aI25
aI13
aI54
aI22
aI2
aI34
aI4
aI8
aI1
aI26
aI14
aI23
aI41
aI53
aI33
aI25
aI3
aI0
aI28
aI2
aI10
aI0
aI46
aI19
aI26
aI2
aI41
aI0
aI44
aI49
aI60
aI17
aI4
aI12
aI17
aI5
aI14
aI37
aI16
aI4
aI25
aI14
aI18
aI32
aI41
aI45
aI58
aI60
aI16
aI30
aI37
aI23
aI1
aI9
aI23
aI1
aI28
aI38
aI15
aI21
aI13
aI25
aI26
aI76
aI2
aI15
aI33
aI15
aI32
aI60
aI32
aI54
aI26
aI13
aI52
aI61
aI25
aI72
aI75
aI24
aI22
aI41
aI85
aI27
aI36
aI44
aI37
aI24
aI44
aI22
aI35
aI50
aI61
aI24
aI40
aI21
aI21
aI34
aI43
aI47
aI75
aI30
aI37
aI1
aI10
aI0
aI0
aI41
aI67
aI18
aI2
aI26
aI7
aI15
aI34
aI49
aI5
aI12
aI32
aI50
aI80
aI7
aI26
aI13
aI20
aI38
aI7
aI20
aI36
aI51
aI44
aI53
aI30
aI19
aI34
aI51
aI14
aI15
aI22
aI26
aI0
aI11
aI21
aI27
aI40
aI7
aI18
aI31
aI40
aI35
aI12
aI68
aI86
aI0
aI6
aI41
aI53
aI1
aI6
aI16
aI23
aI19
aI80
aI11
aI33
aI39
aI1
aI48
aI50
aI24
aI3
aI6
aI19
aI11
aI34
aI16
aI1
aI0
aI0
aI22
aI8
aI24
aI0
aI0
aI0
aI0
aI0
aI32
aI32
aI33
aI0
aI2
aI15
aI27
aI26
aI12
aI2
aI5
aI21
aI28
aI22
aI23
aI34
aI16
aI2
aI10
aI17
aI47
aI59
aI2
aI63
aI51
aI13
aI35
aI16
aI0
aI23
aI0
aI24
aI59
aI10
aI37
aI8
aI26
aI12
aI35
aI12
aI23
aI33
aI10
aI27
aI9
aI35
aI62
aI22
aI22
aI25
aI17
aI4
aI50
aI51
aI78
aI87
aI25
aI75
aI48
aI72
aI0
aI15
aI68
aI30
aI33
aI46
aI80
aI14
aI46
aI33
aI65
aI0
aI15
aI68
aI34
aI1
aI15
aI0
aI15
aI5
aI9
aI64
aI8
aI18
aI34
aI8
aI35
aI0
aI39
aI54
aI39
aI38
aI20
aI44
aI6
aI21
aI3
aI28
aI0
aI6
aI23
aI6
aI10
aI47
aI8
aI39
aI26
aI17
aI57
aI50
aI47
aI37
aI75
aI31
aI6
aI7
aI29
aI72
aI79
aI52
aI84
aI40
aI3
aI27
aI42
aI60
aI66
aI53
aI48
aI33
aI48
aI66
aI68
aI23
aI21
aI9
aI19
aI27
aI40
aI53
aI69
aI1
aI19
aI73
aI52
aI65
aI43
aI29
aI72
aI3
aI12
aI9
aI14
aI27
aI54
aI19
aI14
aI36
aI2
aI6
aI11
aI16
aI22
aI16
aI20
aI49
aI33
aI0
aI49
aI69
aI48
aI44
aI35
aI75
aI21
aI0
aI6
aI50
aI9
aI0
aI14
aI35
aI43
aI14
aI0
aI22
aI26
aI1
aI3
aI34
aI19
aI29
aI14
aI17
aI41
aI58
aI85
aI2
aI0
aI11
aI5
aI10
aI10
aI30
aI0
aI0
aI27
aI10
aI3
aI16
aI30
aI40
aI15
aI39
aI60
aI79
aI6
aI12
aI14
aI7
aI28
aI0
aI22
aI11
aI16
aI17
aI3
aI14
aI24
aI28
aI8
aI28
aI9
aI65
aI54
aI50
aI83
aI26
aI18
aI16
aI17
aI20
aI11
aI0
aI5
aI0
aI11
aI19
aI29
aI43
aI46
aI11
aI16
aI31
aI45
aI66
aI20
aI82
aI11
aI21
aI30
aI11
aI37
aI61
aI71
aI11
aI13
aI14
aI23
aI30
aI34
aI43
aI50
aI62
aI19
aI14
aI30
aI41
aI55
aI19
aI22
aI11
aI22
aI38
aI49
aI2
aI8
aI16
aI40
aI53
aI6
aI38
aI83
aI30
aI71
aI5
aI21
aI33
aI39
aI1
aI7
aI2
aI7
aI2
aI20
aI35
aI1
aI29
aI5
aI39
aI14
aI24
aI29
aI33
aI17
aI47
aI65
aI1
aI6
aI22
aI0
aI31
aI36
aI55
aI72
aI0
aI0
aI18
aI1
aI18
aI25
aI9
aI15
aI42
aI25
aI19
aI41
aI38
aI2
aI12
aI44
aI28
aI21
aI20
aI34
aI9
aI13
aI8
aI20
aI18
aI49
aI13
aI7
aI0
aI8
aI25
aI23
aI22
aI22
aI37
aI20
aI3
aI75
aI33
aI11
aI45
aI3
aI9
aI24
aI12
aI55
aI30
aI22
aI20
aI30
aI33
aI25
aI70
aI56
aI31
aI0
aI10
aI19
aI0
aI30
aI41
aI9
aI6
aI11
aI22
aI4
aI62
aI14
aI0
aI18
aI9
aI17
aI11
aI13
aI24
aI26
aI52
aI47
aI27
aI12
aI2
aI24
aI22
aI55
aI22
aI26
aI30
aI43
aI53
aI36
aI36
aI17
aI12
aI9
aI2
aI0
aI0
aI20
aI16
aI30
aI4
aI6
aI4
aI15
aI27
aI45
aI71
aI40
aI55
aI81
aI84
aI21
aI1
aI11
aI10
aI4
aI23
aI37
aI45
aI26
aI36
aI12
aI19
aI25
aI14
aI3
aI4
aI35
aI33
aI36
aI62
aI18
aI44
aI86
aI40
aI47
aI57
aI29
aI16
aI18
aI13
aI39
aI41
aI58
aI84
aI48
aI64
aI77
aI68
aI24
aI32
aI19
aI24
aI44
aI8
aI13
aI28
aI27
aI20
aI35
aI39
aI50
aI57
aI36
aI19
aI0
aI12
aI21
aI2
aI14
aI16
aI17
aI0
aI38
aI6
aI14
aI19
aI34
aI0
aI13
aI0
aI0
aI12
aI31
aI5
aI21
aI11
aI18
aI5
aI40
aI33
aI9
aI17
aI19
aI27
aI33
aI7
aI17
aI5
aI26
aI24
aI17
aI22
aI36
aI55
aI6
aI16
aI5
aI48
aI15
aI23
aI16
aI30
aI11
aI22
aI33
aI44
aI13
aI45
aI16
aI11
aI23
aI32
aI56
aI64
aI72
aI73
aI74
aI36
aI13
aI5
aI20
aI16
aI16
aI13
aI10
aI10
aI21
aI0
aI7
aI12
aI12
aI1
aI8
aI19
aI11
aI18
aI31
aI26
aI53
aI12
aI33
aI32
aI11
aI23
aI51
aI52
aI13
aI11
aI32
aI8
aI19
aI27
aI18
aI27
aI28
aI21
aI11
aI2
aI5
aI18
aI29
aI11
aI6
aI16
aI35
aI15
aI29
aI8
aI16
aI10
aI19
aI27
aI35
aI50
aI74
aI83
aI14
aI27
aI8
aI21
aI1
aI3
aI19
aI26
aI25
aI42
aI37
aI23
aI46
aI79
aI23
aI0
aI24
aI0
aI6
aI9
aI19
aI0
aI6
aI11
aI72
aI87
aI5
aI10
aI21
aI42
aI52
aI49
aI42
aI25
aI55
aI72
aI5
aI1
aI11
aI51
aI63
aI21
aI30
aI21
aI0
aI0
aI16
aI51
aI16
aI8
aI22
aI44
aI48
aI66
aI71
aI31
aI44
aI15
aI17
aI23
aI36
aI47
aI55
aI63
aI65
aI12
aI1
aI38
aI15
aI37
aI34
aI18
aI18
aI11
aI13
aI28
aI23
aI20
aI11
aI6
aI3
aI25
aI29
aI15
aI43
aI2
aI0
aI0
aI2
aI20
aI23
aI31
aI4
aI54
aI1
aI8
aI43
aI48
aI60
aI7
aI3
aI6
aI10
aI8
aI38
aI33
aI53
aI0
aI74
aI6
aI20
aI11
aI16
aI36
aI40
aI18
aI56
aI15
aI0
aI2
aI20
aI50
aI0
aI11
aI13
aI19
aI0
aI10
aI26
aI11
aI31
aI40
aI58
aI78
aI43
aI49
aI65
aI62
aI7
aI22
aI38
aI18
aI8
aI29
aI57
aI7
aI9
aI12
aI30
aI38
aI23
aI38
aI4
aI29
aI46
aI62
aI20
aI25
aI26
aI9
aI37
aI44
aI60
aI55
aI49
aI66
aI60
aI2
aI38
aI60
aI18
aI36
aI38
aI39
aI47
aI51
aI58
aI73
aI63
aI42
aI13
aI9
aI21
aI0
aI15
aI26
aI31
aI14
aI25
aI9
aI0
aI26
aI0
aI10
aI6
aI22
aI19
aI12
aI26
aI2
aI16
aI8
aI31
aI39
aI12
aI2
aI47
aI28
aI39
aI56
aI73
aI2
aI22
aI1
aI13
aI60
aI42
aI45
aI47
aI56
aI29
aI42
aI65
aI41
aI69
aI70
aI28
aI32
aI14
aI9
aI6
aI33
aI49
aI18
aI75
aI36
aI58
aI9
aI5
aI6
aI11
aI28
aI8
aI8
aI35
aI53
aI5
aI33
aI46
aI0
aI27
aI15
aI10
aI26
aI31
aI35
aI40
aI47
aI56
aI81
aI26
aI6
aI15
aI14
aI28
aI0
aI29
aI5
aI9
aI10
aI0
aI16
aI19
aI22
aI22
aI21
aI27
aI0
aI7
aI0
aI28
aI0
aI6
aI64
aI69
aI28
aI11
aI31
aI12
aI17
aI79
aI18
aI26
aI20
aI0
aI64
aI31
aI24
aI38
aI76
aI61
aI19
aI14
aI0
aI29
aI13
aI0
aI3
aI1
aI31
aI50
aI19
aI25
aI39
aI37
aI38
aI41
aI72
aI14
aI30
aI49
aI37
aI48
aI64
aI53
aI55
aI28
aI0
aI4
aI30
aI29
aI29
aI43
aI56
aI72
aI76
aI87
aI30
aI48
aI18
aI19
aI5
aI34
aI10
aI21
aI25
aI14
aI24
aI40
aI6
aI15
aI73
aI81
aI3
aI17
aI32
aI34
aI47
aI48
aI43
aI33
aI9
aI27
aI23
aI3
aI12
aI2
aI0
aI25
aI29
aI39
aI55
aI14
aI29
aI53
aI8
aI30
aI3
aI4
aI9
aI6
aI11
aI23
aI2
aI10
aI10
aI41
aI57
aI45
aI8
aI8
aI39
aI58
aI25
aI14
aI33
aI33
aI14
aI5
aI9
aI2
aI60
aI19
aI9
aI8
aI11
aI32
aI45
aI6
aI31
aI54
aI4
aI7
aI1
aI8
aI0
aI0
aI16
aI20
aI21
aI33
aI74
aI24
aI27
aI0
aI9
aI9
aI21
aI34
aI33
aI11
aI26
aI35
aI27
aI22
aI33
aI46
aI1
aI7
aI15
aI0
aI5
aI13
aI17
aI40
aI30
aI0
aI5
aI41
aI59
aI79
aI54
aI21
aI6
aI13
aI3
aI19
aI8
aI7
aI1
aI0
aI17
aI61
aI14
aI16
aI0
aI26
aI39
aI53
aI17
aI8
aI28
aI19
aI13
aI15
aI30
aI42
aI26
aI11
aI32
aI29
aI53
aI38
aI55
aI63
aI23
aI21
aI44
aI50
aI15
aI21
aI28
aI3
aI10
aI30
aI41
aI43
aI48
aI59
aI63
aI72
aI49
aI1
aI21
aI20
aI13
aI33
aI49
aI21
aI30
aI31
aI32
aI34
aI34
aI41
aI47
aI61
aI40
aI40
aI0
aI24
aI12
aI12
aI25
aI5
aI4
aI7
aI35
aI7
aI0
aI19
aI29
aI1
aI10
aI0
aI31
aI11
aI26
aI41
aI53
aI67
aI31
aI50
aI37
aI40
aI52
aI44
aI26
aI24
aI60
aI34
aI7
aI0
aI49
aI19
aI17
aI22
aI41
aI19
aI26
aI32
aI5
aI10
aI19
aI23
aI26
aI32
aI10
aI3
aI25
aI38
aI40
aI1
aI18
aI5
aI18
aI32
aI14
aI69
aI18
aI3
aI7
aI25
aI34
aI21
aI21
aI13
aI17
aI27
aI6
aI6
aI24
aI36
aI10
aI14
aI12
aI1
aI17
aI15
aI29
aI7
aI26
aI26
aI44
aI1
aI14
aI16
aI6
aI32
aI16
aI2
aI22
aI3
aI3
aI65
aI41
aI1
aI12
aI23
aI43
aI51
aI53
aI66
aI13
aI21
aI2
aI22
aI18
aI4
aI11
aI18
aI35
aI55
aI25
aI31
aI36
aI22
aI48
aI67
aI24
aI26
aI39
aI26
aI5
aI5
aI20
aI27
aI48
aI45
aI2
aI11
aI0
aI0
aI0
aI14
aI15
aI26
aI35
aI50
aI16
aI21
aI40
aI10
aI10
aI19
aI1
aI40
aI57
aI67
aI48
aI28
aI33
aI29
aI14
aI27
aI40
aI19
aI8
aI1
aI22
aI28
aI10
aI27
aI4
aI6
aI22
aI36
aI25
aI22
aI29
aI22
aI30
aI50
aI53
aI26
aI9
aI38
aI44
aI48
aI33
aI41
aI11
aI51
aI13
aI74
aI27
aI52
aI44
aI57
aI30
aI34
aI7
aI16
aI29
aI63
aI60
aI20
aI35
aI55
aI69
aI70
aI39
aI44
aI62
aI39
aI6
aI1
aI26
aI35
aI44
aI26
aI40
aI48
aI6
aI12
aI46
aI40
aI66
aI23
aI22
aI55
aI19
aI8
aI23
aI35
aI10
aI25
aI41
aI3
aI47
aI0
aI19
aI27
aI21
aI25
aI40
aI35
aI15
aI17
aI3
aI6
aI48
aI10
aI17
aI50
aI21
aI27
aI32
aI30
aI65
aI79
aI53
aI46
aI31
aI27
aI6
aI17
aI21
aI0
aI52
aI23
aI12
aI3
aI11
aI22
aI34
aI10
aI10
aI27
aI38
aI48
aI4
aI4
aI60
aI77
aI21
aI29
aI51
aI19
aI16
aI23
aI19
aI30
aI24
aI36
aI9
aI25
aI7
aI0
aI5
aI23
aI26
aI0
aI10
aI26
aI30
aI5
aI14
aI25
aI39
aI16
aI44
aI10
aI22
aI0
aI40
aI3
aI14
aI23
aI35
aI45
aI46
aI48
aI34
aI29
aI42
aI13
aI0
aI12
aI22
aI21
aI4
aI19
aI27
aI27
aI54
aI4
aI10
aI70
aI41
aI28
aI11
aI40
aI59
aI24
aI11
aI44
aI23
aI49
aI2
aI17
aI32
aI8
aI9
aI0
aI6
aI23
aI38
aI54
aI63
aI26
aI0
aI36
aI11
aI14
aI20
aI45
aI69
aI35
aI35
aI35
aI62
aI63
aI41
aI29
aI0
aI0
aI54
aI30
aI3
aI15
aI34
aI44
aI52
aI28
aI8
aI11
aI34
aI0
aI27
aI39
aI12
aI5
aI21
aI7
aI10
aI9
aI11
aI27
aI59
aI72
aI40
aI23
aI15
aI22
aI56
aI53
aI41
aI35
aI37
aI63
aI47
aI59
aI72
aI16
aI24
aI74
aI9
aI12
aI18
aI21
aI7
aI35
aI49
aI72
aI11
aI6
aI28
aI16
aI17
aI30
aI18
aI23
aI34
aI17
aI14
aI30
aI24
aI2
aI41
aI6
aI9
aI13
aI13
aI34
aI51
aI51
aI11
aI9
aI9
aI9
aI31
aI10
aI27
aI27
aI10
aI0
aI25
aI16
aI28
aI12
aI60
aI1
aI2
aI15
aI17
aI20
aI33
aI4
aI42
aI26
aI38
aI15
aI10
aI6
aI47
aI80
aI85
aI46
aI24
aI36
aI29
aI18
aI29
aI36
aI19
aI43
aI23
aI39
aI52
aI25
aI40
aI63
aI37
aI12
aI9
aI36
aI46
aI68
aI0
aI13
aI5
aI41
aI65
aI21
aI51
aI2
aI47
aI55
aI69
aI63
aI75
aI10
aI38
aI7
aI0
aI15
aI25
aI18
aI6
aI29
aI10
aI29
aI0
aI1
aI6
aI15
aI50
aI30
aI35
aI39
aI20
aI30
aI7
aI22
aI8
aI5
aI26
aI48
aI15
aI10
aI3
aI10
aI5
aI32
aI8
aI37
aI43
aI7
aI4
aI25
aI86
aI12
aI18
aI9
aI11
aI19
aI4
aI3
aI50
aI9
aI4
aI14
aI32
aI8
aI41
aI11
aI41
aI3
aI0
aI9
aI17
aI20
aI1
aI19
aI39
aI29
aI8
aI53
aI13
aI18
aI6
aI70
aI81
aI43
aI29
aI15
aI28
aI20
aI29
aI12
aI12
aI39
aI30
aI44
aI3
aI10
aI10
aI14
aI8
aI20
aI42
aI24
aI29
aI19
aI44
aI0
aI34
aI1
aI11
aI18
aI27
aI20
aI42
aI55
aI20
aI75
aI45
aI56
aI10
aI5
aI27
aI15
aI3
aI0
aI19
aI27
aI14
aI16
aI17
aI36
aI1
aI8
aI13
aI30
aI11
aI24
aI2
aI33
aI56
aI70
aI31
aI55
aI12
aI31
aI21
aI42
aI16
aI7
aI0
aI0
aI5
aI29
aI7
aI30
aI20
aI13
aI16
aI22
aI14
aI22
aI26
aI16
aI9
aI19
aI42
aI13
aI17
aI31
aI4
aI10
aI9
aI10
aI41
aI14
aI54
aI61
aI21
aI16
aI20
aI16
aI5
aI26
aI33
aI0
aI17
aI18
aI38
aI0
aI11
aI29
aI45
aI57
aI63
aI11
aI2
aI9
aI32
aI45
aI60
aI59
aI2
aI19
aI37
aI42
aI63
aI43
aI42
aI11
aI10
aI32
aI46
aI62
aI57
aI72
aI20
aI26
aI13
aI33
aI34
aI1
aI13
aI31
aI38
aI4
aI15
aI2
aI23
aI17
aI30
aI30
aI17
aI41
aI0
aI21
aI33
aI60
aI55
aI18
aI43
aI20
aI6
aI29
aI37
aI51
aI57
aI63
aI45
aI70
aI13
aI30
aI37
aI45
aI31
aI44
aI28
aI40
aI22
aI34
aI15
aI26
aI34
aI24
aI37
aI21
aI23
aI33
aI55
aI62
aI11
aI23
aI10
aI28
aI9
aI20
aI9
aI33
aI35
aI58
aI76
aI78
aI17
aI19
aI17
aI31
aI12
aI11
aI33
aI9
aI26
aI29
aI15
aI44
aI44
aI49
aI67
aI33
aI74
aI35
aI36
aI46
aI31
aI5
aI21
aI2
aI40
aI58
aI8
aI9
aI20
aI44
aI67
aI42
aI35
aI21
aI12
aI24
aI1
aI24
aI19
aI27
aI5
aI13
aI17
aI24
aI35
aI63
aI77
aI63
aI77
aI30
aI36
aI17
aI29
aI44
aI37
aI30
aI43
aI65
aI22
aI16
aI0
aI17
aI7
aI26
aI10
aI14
aI19
aI29
aI1
aI21
aI19
aI37
aI30
aI50
aI61
aI30
aI57
aI17
aI10
aI26
aI31
aI36
aI9
aI31
aI29
aI45
aI12
aI16
aI22
aI37
aI49
aI14
aI17
aI29
aI35
aI26
aI24
aI21
aI14
aI12
aI30
aI10
aI49
aI14
aI35
aI56
aI56
aI67
aI27
aI33
aI43
aI60
aI17
aI21
aI35
aI23
aI41
aI45
aI73
aI9
aI54
aI59
aI50
aI2
aI22
aI34
aI42
aI54
aI3
aI20
aI3
aI4
aI0
aI36
aI62
aI14
aI37
aI24
aI53
aI13
aI47
aI21
aI32
aI51
aI14
aI37
aI4
aI2
aI28
aI9
aI14
aI32
aI48
aI57
aI9
aI17
aI32
aI11
aI0
aI23
aI13
aI15
aI10
aI4
aI11
aI26
aI39
aI3
aI13
aI60
aI25
aI39
aI24
aI17
aI49
aI25
aI56
aI23
aI12
aI19
aI13
aI73
aI76
aI48
aI66
aI0
aI0
aI80
aI86
aI26
aI41
aI19
aI38
aI63
aI50
aI26
aI16
aI55
aI69
aI38
aI15
aI25
aI27
aI65
aI25
aI32
aI47
aI60
aI0
aI12
aI24
aI56
aI74
aI87
aI0
aI19
aI5
aI20
aI6
aI22
aI42
aI75
aI24
aI4
aI67
aI32
aI8
aI16
aI32
aI39
aI48
aI62
aI1
aI13
aI35
aI39
aI14
aI0
aI0
aI0
aI12
aI36
aI21
aI24
aI35
aI49
aI73
aI12
aI17
aI16
aI20
aI22
aI10
aI14
aI8
aI2
aI30
aI41
aI62
aI80
aI37
aI18
aI7
aI23
aI39
aI14
aI7
aI19
aI27
aI27
aI28
aI55
aI38
aI43
aI30
aI18
aI0
aI26
aI9
aI15
aI16
aI22
aI28
aI4
aI9
aI43
aI56
aI34
aI9
aI22
aI44
aI0
aI17
aI36
aI0
aI19
aI6
aI21
aI17
aI3
aI30
aI32
aI4
aI15
aI33
aI27
aI24
aI0
aI0
aI12
aI36
aI56
aI7
aI21
aI42
aI63
aI2
aI26
aI47
aI36
aI45
aI55
aI72
aI2
aI25
aI39
aI26
aI27
aI54
aI11
aI0
aI4
aI3
aI17
aI0
aI20
aI38
aI12
aI30
aI5
aI27
aI21
aI13
aI8
aI14
aI27
aI39
aI50
aI0
aI23
aI48
aI6
aI3
aI56
aI29
aI19
aI9
aI33
aI24
aI18
aI21
aI32
aI39
aI49
aI17
aI38
aI32
aI20
aI10
aI24
aI26
aI34
aI24
aI40
aI57
aI0
aI2
aI5
aI12
aI39
aI73
aI29
aI31
aI68
aI27
aI21
aI26
aI24
aI27
aI33
aI67
aI75
aI36
aI2
aI30
aI11
aI8
aI13
aI8
aI25
aI8
aI13
aI8
aI25
aI59
aI16
aI28
aI39
aI59
aI69
aI33
aI7
aI16
aI9
aI15
aI19
aI26
aI14
aI25
aI31
aI35
aI41
aI34
aI24
aI6
aI19
aI27
aI39
aI7
aI16
aI4
aI0
aI22
aI62
aI14
aI41
aI51
aI50
aI52
aI34
aI63
aI6
aI18
aI20
aI27
aI20
aI4
aI25
aI41
aI51
aI67
aI23
aI2
aI47
aI19
aI19
aI5
aI25
aI30
aI70
aI16
aI16
aI16
aI25
aI26
aI40
aI19
aI6
aI0
aI0
aI16
aI5
aI39
aI77
aI48
aI31
aI0
aI21
aI50
aI86
aI63
aI59
aI29
aI47
aI2
aI59
aI23
aI44
aI15
aI67
aI14
aI2
aI28
aI29
aI41
aI28
aI34
aI9
aI25
aI31
aI13
aI11
aI2
aI23
aI61
aI23
aI50
aI38
aI63
aI5
aI20
aI0
aI0
aI3
aI10
aI5
aI55
aI23
aI4
aI55
aI69
aI2
aI12
aI0
aI32
aI44
aI38
aI0
aI3
aI17
aI38
aI3
aI13
aI53
aI0
aI5
aI14
aI5
aI21
aI31
aI40
aI62
aI0
aI17
aI42
aI6
aI43
aI55
aI48
aI23
aI14
aI23
aI5
aI34
aI45
aI81
aI83
aI87
aI28
aI23
aI20
aI18
aI0
aI1
aI7
aI13
aI30
aI44
aI0
aI5
aI14
aI28
aI31
aI39
aI69
aI1
aI2
aI12
aI20
aI47
aI49
aI59
aI14
aI17
aI63
aI5
aI2
aI14
aI5
aI23
aI14
aI24
aI7
aI8
aI27
aI47
aI52
aI45
aI17
aI0
aI0
aI0
aI0
aI0
aI28
aI51
aI33
aI9
aI48
aI28
aI60
aI16
aI15
aI25
aI47
aI54
aI19
aI33
aI64
aI17
aI45
aI36
aI50
aI5
aI20
aI29
aI42
aI49
aI23
aI32
aI11
aI22
aI38
aI11
aI18
aI38
aI48
aI26
aI32
aI12
aI40
aI38
aI12
aI36
aI0
aI16
aI2
aI34
aI50
aI18
aI44
aI51
aI8
aI25
aI0
aI11
aI0
aI47
aI45
aI0
aI26
aI16
aI41
aI15
aI24
aI31
aI30
aI48
aI12
aI28
aI52
aI15
aI26
aI5
aI10
aI18
aI28
aI41
aI49
aI6
aI66
aI24
aI36
aI47
aI3
aI55
aI57
aI77
aI32
aI52
aI18
aI66
aI11
aI15
aI22
aI15
aI16
aI48
aI30
aI36
aI61
aI32
aI26
aI15
aI6
aI9
aI22
aI19
aI5
aI22
aI7
aI9
aI10
aI16
aI37
aI43
aI66
aI20
aI73
aI81
aI83
aI27
aI5
aI16
aI29
aI14
aI25
aI25
aI12
aI33
aI4
aI7
aI15
aI0
aI0
aI2
aI22
aI30
aI24
aI50
aI1
aI16
aI26
aI16
aI22
aI38
aI32
aI28
aI12
aI33
aI40
aI49
aI57
aI25
aI39
aI25
aI58
aI5
aI6
aI15
aI32
aI37
aI5
aI24
aI21
aI35
aI61
aI29
aI20
aI39
aI16
aI17
aI7
aI14
aI26
aI15
aI23
aI40
aI49
aI20
aI13
aI39
aI19
aI0
aI51
aI20
aI21
aI30
aI37
aI38
aI19
aI29
aI8
aI0
aI3
aI22
aI18
aI6
aI24
aI36
aI10
aI29
aI10
aI17
aI16
aI42
aI28
aI16
aI24
aI3
aI17
aI33
aI12
aI3
aI6
aI13
aI16
aI3
aI14
aI21
aI8
aI5
aI46
aI18
aI6
aI12
aI27
aI23
aI45
aI56
aI74
aI49
aI11
aI1
aI33
aI24
aI2
aI1
aI28
aI18
aI15
aI6
aI11
aI22
aI20
aI11
aI8
aI27
aI41
aI54
aI35
aI22
aI18
aI24
aI35
aI19
aI8
aI3
aI23
aI8
aI64
aI53
aI32
aI12
aI32
aI36
aI11
aI24
aI26
aI4
aI12
aI22
aI38
aI27
aI47
aI59
aI15
aI26
aI16
aI34
aI38
aI17
aI22
aI42
aI30
aI20
aI8
aI14
aI29
aI9
aI9
aI20
aI14
aI29
aI21
aI28
aI4
aI10
aI30
aI59
aI66
aI57
aI48
aI42
aI30
aI16
aI70
aI38
aI14
aI12
aI0
aI16
aI29
aI44
aI25
aI34
aI43
aI64
aI42
aI5
aI2
aI17
aI0
aI12
aI11
aI34
aI21
aI12
aI21
aI0
aI22
aI2
aI11
aI12
aI3
aI7
aI0
aI0
aI10
aI21
aI0
aI3
aI1
aI30
aI36
aI42
aI44
aI56
aI58
aI27
aI47
aI19
aI58
aI63
aI41
aI26
aI19
aI21
aI34
aI10
aI27
aI48
aI18
aI9
aI5
aI27
aI62
aI79
aI19
aI36
aI24
aI63
aI35
aI12
aI8
aI20
aI17
aI21
aI33
aI54
aI6
aI20
aI0
aI0
aI2
aI14
aI30
aI39
aI0
aI2
aI19
aI52
aI33
aI5
aI32
aI51
aI6
aI0
aI13
aI17
aI8
aI34
aI51
aI82
aI14
aI8
aI21
aI0
aI32
aI0
aI5
aI1
aI9
aI7
aI21
aI0
aI14
aI22
aI36
aI24
aI5
aI40
aI21
aI54
aI7
aI1
aI14
aI39
aI2
aI15
aI27
aI46
aI55
aI6
aI13
aI63
aI47
aI28
aI17
aI14
aI7
aI26
aI21
aI55
aI59
aI19
aI5
aI12
aI33
aI28
aI25
aI44
aI24
aI15
aI21
aI11
aI14
aI28
aI2
aI21
aI61
aI24
aI3
aI18
aI14
aI23
aI26
aI35
aI27
aI21
aI33
aI0
aI17
aI14
aI16
aI38
aI49
aI24
aI14
aI7
aI19
aI28
aI7
aI16
aI33
aI46
aI43
aI21
aI62
aI68
aI75
aI87
aI7
aI14
aI33
aI54
aI12
aI19
aI38
aI57
aI0
aI5
aI16
aI48
aI4
aI1
aI28
aI27
aI31
aI57
aI36
aI47
aI19
aI37
aI16
aI0
aI0
aI13
aI20
aI56
aI69
aI55
aI19
aI43
aI4
aI10
aI81
aI12
aI20
aI60
aI0
aI11
aI23
aI35
aI47
aI28
aI2
aI83
aI72
aI72
aI33
aI55
aI61
aI84
aI15
aI2
aI14
aI39
aI14
aI33
aI44
aI13
aI9
aI20
aI6
aI35
aI70
aI81
aI32
aI42
aI19
aI33
aI33
aI11
aI23
aI31
aI0
aI13
aI39
aI0
aI6
aI16
aI4
aI15
aI2
aI48
aI65
aI24
aI27
aI13
aI27
aI5
aI15
aI14
aI19
aI7
aI27
aI42
aI64
aI52
aI21
aI74
aI13
aI60
aI11
aI45
aI19
aI3
aI19
aI55
aI70
aI62
aI45
aI9
aI24
aI33
aI26
aI21
aI42
aI58
aI77
aI36
aI82
aI33
aI37
aI54
aI27
aI11
aI22
aI28
aI5
aI9
aI9
aI30
aI31
aI0
aI36
aI16
aI24
aI26
aI10
aI18
aI3
aI14
aI25
aI6
aI17
aI9
aI13
aI29
aI42
aI56
aI26
aI19
aI15
aI17
aI21
aI31
aI34
aI47
aI27
aI9
aI10
aI9
aI35
aI58
aI22
aI62
aI57
aI49
aI70
aI37
aI34
aI28
aI0
aI21
aI0
aI21
aI42
aI8
aI21
aI3
aI16
aI22
aI16
aI61
aI49
aI32
aI25
aI0
aI20
aI53
aI3
aI10
aI31
aI53
aI4
aI18
aI52
aI0
aI3
aI18
aI48
aI8
aI60
aI11
aI17
aI21
aI28
aI30
aI0
aI10
aI39
aI17
aI16
aI31
aI42
aI22
aI17
aI0
aI8
aI19
aI7
aI9
aI1
aI21
aI35
aI61
aI16
aI24
aI45
aI38
aI24
aI5
aI20
aI49
aI5
aI51
aI9
aI25
aI27
aI34
aI23
aI22
aI30
aI2
aI0
aI45
aI73
aI46
aI20
aI34
aI11
aI14
aI20
aI2
aI3
aI1
aI5
aI13
aI25
aI41
aI22
aI6
aI52
aI12
aI29
aI32
aI43
aI51
aI69
aI65
aI14
aI14
aI15
aI26
aI13
aI4
aI14
aI41
aI23
aI36
aI39
aI12
aI38
aI72
aI6
aI17
aI36
aI34
aI3
aI12
aI30
aI10
aI15
aI24
aI15
aI2
aI13
aI11
aI8
aI0
aI14
aI37
aI0
aI39
aI27
aI41
aI1
aI13
aI2
aI10
aI27
aI42
aI30
aI28
aI1
aI11
aI0
aI0
aI13
aI42
aI59
aI69
aI27
aI63
aI26
aI72
aI50
aI34
aI54
aI18
aI21
aI6
aI17
aI16
aI10
aI9
aI26
aI12
aI37
aI20
aI35
aI40
aI17
aI4
aI12
aI14
aI36
aI74
aI55
aI25
aI29
aI38
aI23
aI29
aI38
aI8
aI9
aI0
aI41
aI60
aI75
aI50
aI50
aI7
aI43
aI12
aI25
aI33
aI35
aI23
aI80
aI4
aI20
aI7
aI66
aI77
aI81
aI0
aI35
aI58
aI46
aI57
aI60
aI31
aI70
aI62
aI15
aI25
aI5
aI30
aI5
aI11
aI20
aI32
aI6
aI20
aI3
aI19
aI2
aI49
aI48
aI5
aI61
aI5
aI16
aI3
aI18
aI40
aI45
aI7
aI3
aI13
aI7
aI19
aI1
aI52
aI18
aI2
aI23
aI0
aI12
aI35
aI35
aI73
aI55
aI31
aI28
aI8
aI5
aI22
aI9
aI5
aI6
aI17
aI28
aI15
aI16
aI34
aI27
aI16
aI29
aI49
aI6
aI9
aI12
aI33
aI6
aI33
aI67
aI28
aI66
aI7
aI0
aI25
aI17
aI12
aI38
aI22
aI32
aI50
aI36
aI18
aI26
aI30
aI25
aI43
aI65
aI53
aI3
aI22
aI19
aI34
aI53
aI70
aI19
aI11
aI28
aI55
aI1
aI11
aI9
aI34
aI31
aI8
aI33
aI9
aI30
aI48
aI40
aI21
aI2
aI0
aI17
aI41
aI31
aI4
aI20
aI3
aI15
aI42
aI9
aI28
aI36
aI30
aI34
aI33
aI45
aI72
aI27
aI0
aI4
aI18
aI13
aI6
aI7
aI9
aI6
aI0
aI11
aI1
aI3
aI11
aI6
aI5
aI17
aI30
aI32
aI15
aI28
aI3
aI21
aI26
aI32
aI53
aI53
aI58
aI66
aI68
aI0
aI7
aI23
aI11
aI24
aI12
aI19
aI31
aI21
aI34
aI29
aI40
aI39
aI16
aI0
aI12
aI19
aI2
aI22
aI32
aI46
aI60
aI84
aI0
aI20
aI15
aI28
aI34
aI37
aI10
aI22
aI3
aI23
aI36
aI34
aI47
aI0
aI19
aI5
aI12
aI48
aI64
aI7
aI0
aI11
aI18
aI25
aI20
aI35
aI44
aI22
aI23
aI7
aI18
aI43
aI36
aI74
aI65
aI16
aI5
aI21
aI36
aI41
aI57
aI22
aI34
aI22
aI29
aI5
aI14
aI9
aI3
aI18
aI40
aI22
aI1
aI10
aI30
aI36
aI53
aI59
aI24
aI44
aI15
aI38
aI4
aI11
aI2
aI4
aI14
aI3
aI29
aI0
aI14
aI33
aI25
aI1
aI22
aI13
aI36
aI42
aI24
aI26
aI71
aI74
aI1
aI36
aI83
aI9
aI11
aI15
aI21
aI54
aI47
aI20
aI4
aI4
aI29
aI19
aI15
aI25
aI30
aI38
aI50
aI48
aI42
aI55
aI4
aI27
aI21
aI15
aI36
aI6
aI11
aI16
aI23
aI4
aI14
aI14
aI23
aI5
aI11
aI33
aI8
aI37
aI4
aI15
aI3
aI7
aI26
aI3
aI12
aI20
aI0
aI47
aI0
aI19
aI31
aI9
aI10
aI24
aI19
aI18
aI17
aI36
aI9
aI33
aI38
aI17
aI7
aI29
aI39
aI25
aI39
aI56
aI66
aI24
aI39
aI44
aI30
aI4
aI8
aI12
aI1
aI8
aI3
aI21
aI30
aI58
aI36
aI32
aI5
aI29
aI54
aI9
aI5
aI68
aI81
aI3
aI6
aI16
aI18
aI23
aI11
aI24
aI25
aI54
aI21
aI33
aI38
aI28
aI56
aI59
aI13
aI28
aI57
aI11
aI35
aI53
aI60
aI63
aI67
aI11
aI60
aI63
aI35
aI81
aI6
aI32
aI18
aI78
aI42
aI67
aI62
aI80
aI82
aI50
aI21
aI43
aI23
aI11
aI48
aI59
aI30
aI38
aI65
aI74
aI77
aI35
aI1
aI9
aI5
aI15
aI22
aI21
aI0
aI2
aI22
aI2
aI10
aI21
aI34
aI11
aI28
aI43
aI43
aI41
aI12
aI35
aI48
aI33
aI0
aI10
aI4
aI0
aI12
aI41
aI13
aI33
aI21
aI10
aI29
aI34
aI13
aI4
aI70
aI5
aI39
aI22
aI39
aI1
aI3
aI8
aI13
aI33
aI35
aI47
aI35
aI1
aI16
aI12
aI7
aI24
aI38
aI15
aI14
aI33
aI73
aI78
aI32
aI14
aI20
aI36
aI0
aI26
aI13
aI24
aI20
aI7
aI8
aI20
aI49
aI15
aI15
aI35
aI51
aI21
aI33
aI12
aI0
aI0
aI5
aI23
aI48
aI16
aI52
aI3
aI13
aI6
aI9
aI25
aI2
aI6
aI0
aI5
aI57
aI45
aI34
aI52
aI71
aI23
aI72
aI60
aI5
aI19
aI24
aI36
aI53
aI55
aI1
aI48
aI0
aI6
aI12
aI15
aI37
aI53
aI0
aI5
aI9
aI1
aI53
aI31
aI39
aI38
aI30
aI42
aI2
aI26
aI18
aI57
aI54
aI68
aI43
aI75
aI7
aI33
aI61
aI20
aI28
aI11
aI7
aI13
aI23
aI6
aI16
aI11
aI22
aI7
aI4
aI4
aI25
aI31
aI53
aI9
aI72
aI55
aI84
aI12
aI17
aI5
aI26
aI17
aI0
aI49
aI34
aI5
aI24
aI61
aI46
aI12
aI22
aI38
aI54
aI9
aI1
aI5
aI9
aI30
aI4
aI21
aI23
aI32
aI4
aI0
aI0
aI17
aI30
aI60
aI36
aI41
aI1
aI62
aI7
aI32
aI24
aI18
aI51
aI0
aI26
aI24
aI11
aI12
aI36
aI23
aI28
aI17
aI42
aI40
aI62
aI28
aI38
aI87
aI35
aI66
aI48
aI36
aI46
aI58
aI74
aI2
aI15
aI39
aI53
aI70
aI22
aI86
aI4
aI16
aI8
aI14
aI40
aI47
aI51
aI53
aI53
aI63
aI62
aI70
aI28
aI33
aI75
aI44
aI60
aI5
aI8
aI24
aI17
aI32
aI5
aI36
aI15
aI24
aI37
aI42
aI56
aI63
aI72
aI73
aI12
aI1
aI3
aI8
aI6
aI19
aI22
aI41
aI52
aI33
aI59
aI8
aI34
aI41
aI26
aI25
aI64
aI18
aI55
aI13
aI5
aI14
aI0
aI14
aI74
aI66
aI71
aI79
aI34
aI44
aI36
aI0
aI6
aI18
aI12
aI16
aI24
aI14
aI6
aI21
aI38
aI13
aI29
aI47
aI30
aI19
aI21
aI1
aI14
aI38
aI20
aI22
aI16
aI9
aI7
aI62
aI49
aI4
aI21
aI30
aI12
aI23
aI16
aI31
aI35
aI12
aI53
aI31
aI5
aI19
aI51
aI39
aI50
aI1
aI7
aI13
aI16
aI7
aI31
aI44
aI46
aI12
aI21
aI41
aI1
aI8
aI19
aI21
aI16
aI4
aI2
aI6
aI24
aI0
aI11
aI29
aI8
aI7
aI15
aI29
aI33
aI48
aI85
aI14
aI2
aI8
aI9
aI24
aI22
aI8
aI15
aI30
aI28
aI41
aI11
aI19
aI22
aI35
aI48
aI0
aI9
aI2
aI3
aI62
aI21
aI3
aI16
aI6
aI20
aI36
aI0
aI31
aI39
aI30
aI4
aI3
aI39
aI6
aI18
aI9
aI28
aI46
aI35
aI35
aI36
aI16
aI42
aI4
aI75
aI63
aI51
aI5
aI33
aI44
aI54
aI60
aI63
aI72
aI17
aI10
aI48
aI23
aI2
aI38
aI15
aI24
aI35
aI60
aI52
aI37
aI57
aI47
aI9
aI8
aI25
aI36
aI23
aI15
aI28
aI44
aI14
aI70
aI14
aI24
aI17
aI47
aI4
aI44
aI36
aI44
aI58
aI32
aI48
aI21
aI48
aI36
aI19
aI0
aI50
aI21
aI25
aI34
aI22
aI2
aI15
aI39
aI49
aI28
aI59
aI14
aI32
aI9
aI9
aI19
aI31
aI0
aI61
aI35
aI49
aI14
aI0
aI29
aI5
aI3
aI28
aI44
aI4
aI20
aI26
aI8
aI19
aI16
aI17
aI9
aI15
aI0
aI7
aI17
aI6
aI9
aI26
aI39
aI7
aI12
aI14
aI9
aI28
aI23
aI14
aI32
aI1
aI0
aI10
aI19
aI32
aI34
aI63
aI6
aI18
aI39
aI0
aI0
aI44
aI37
aI15
aI18
aI12
aI5
aI35
aI46
aI4
aI8
aI16
aI14
aI26
aI5
aI11
aI60
aI1
aI9
aI15
aI9
aI43
aI3
aI10
aI12
aI29
aI26
aI23
aI27
aI32
aI16
aI43
aI4
aI7
aI9
aI14
aI0
aI23
aI29
aI19
aI2
aI0
aI0
aI7
aI12
aI19
aI31
aI9
aI9
aI3
aI20
aI33
aI26
aI19
aI19
aI29
aI3
aI39
aI0
aI36
aI7
aI9
aI26
aI41
aI34
aI49
aI8
aI20
aI40
aI14
aI30
aI57
aI7
aI22
aI20
aI16
aI35
aI10
aI30
aI8
aI19
aI55
aI29
aI18
aI30
aI45
aI55
aI2
aI15
aI27
aI22
aI11
aI31
aI12
aI31
aI4
aI2
aI0
aI13
aI23
aI45
aI75
aI30
aI42
aI54
aI65
aI13
aI19
aI12
aI25
aI31
aI5
aI17
aI32
aI47
aI25
aI60
aI22
aI22
aI15
aI16
aI32
aI5
aI17
aI2
aI24
aI21
aI72
aI58
aI33
aI9
aI19
aI28
aI7
aI50
aI14
aI8
aI7
aI20
aI8
aI16
aI33
aI40
aI12
aI3
aI20
aI7
aI25
aI22
aI0
aI43
aI28
aI43
aI46
aI33
aI22
aI5
aI22
aI15
aI29
aI35
aI49
aI64
aI67
aI13
aI3
aI6
aI5
aI18
aI42
aI40
aI20
aI27
aI19
aI16
aI2
aI33
aI26
aI10
aI14
aI9
aI8
aI7
aI3
aI5
aI36
aI14
aI29
aI52
aI24
aI28
aI17
aI0
aI25
aI31
aI36
aI16
aI22
aI46
aI0
aI14
aI23
aI37
aI15
aI48
aI74
aI65
aI59
aI77
aI13
aI43
aI18
aI0
aI15
aI8
aI35
aI69
aI10
aI35
aI54
aI75
aI49
aI24
aI18
aI17
aI38
aI10
aI11
aI5
aI16
aI38
aI61
aI75
aI48
aI20
aI55
aI57
aI10
aI7
aI13
aI21
aI42
aI51
aI57
aI66
aI39
aI33
aI24
aI25
aI13
aI53
aI12
aI61
aI4
aI12
aI22
aI15
aI11
aI24
aI32
aI5
aI54
aI12
aI67
aI63
aI57
aI39
aI10
aI23
aI36
aI38
aI41
aI28
aI43
aI60
aI78
aI26
aI0
aI9
aI11
aI29
aI14
aI39
aI20
aI11
aI2
aI14
aI35
aI68
aI43
aI61
aI63
aI1
aI46
aI32
aI14
aI43
aI33
aI8
aI10
aI15
aI2
aI4
aI15
aI53
aI81
aI30
aI35
aI12
aI25
aI68
aI80
aI10
aI19
aI53
aI32
aI62
aI5
aI19
aI37
aI7
aI30
aI31
aI13
aI22
aI66
aI19
aI11
aI52
aI30
aI0
aI20
aI0
aI1
aI22
aI39
aI5
aI28
aI7
aI17
aI10
aI12
aI24
aI18
aI21
aI37
aI54
aI83
aI0
aI17
aI56
aI12
aI19
aI5
aI8
aI26
aI11
aI36
aI35
aI37
aI63
aI53
aI78
aI5
aI29
aI55
aI61
aI0
aI12
aI17
aI25
aI37
aI29
aI9
aI29
aI49
aI50
aI43
aI16
aI38
aI9
aI25
aI1
aI8
aI11
aI33
aI11
aI4
aI9
aI16
aI9
aI17
aI25
aI15
aI17
aI43
aI63
aI74
aI17
aI14
aI17
aI25
aI24
aI28
aI14
aI25
aI15
aI15
aI5
aI18
aI27
aI58
aI4
aI11
aI14
aI17
aI2
aI2
aI11
aI13
aI13
aI17
aI10
aI38
aI6
aI6
aI16
aI31
aI34
aI15
aI36
aI24
aI11
aI22
aI25
aI42
aI59
aI70
aI3
aI31
aI74
aI79
aI14
aI24
aI5
aI61
aI50
aI18
aI30
aI41
aI50
aI10
aI13
aI20
aI10
aI3
aI14
aI19
aI40
aI32
aI22
aI12
aI4
aI10
aI10
aI0
aI14
aI9
aI23
aI28
aI34
aI43
aI62
aI19
aI1
aI72
aI25
aI43
aI4
aI22
aI32
aI1
aI15
aI3
aI2
aI10
aI30
aI14
aI14
aI27
aI0
aI1
aI1
aI3
aI22
aI37
aI18
aI24
aI21
aI51
aI15
aI0
aI12
aI23
aI5
aI58
aI44
aI56
aI51
aI0
aI14
aI29
aI43
aI49
aI56
aI66
aI37
aI32
aI24
aI30
aI46
aI12
aI38
aI51
aI31
aI38
aI12
aI26
aI34
aI49
aI23
aI39
aI27
aI59
aI14
aI22
aI41
aI45
aI49
aI55
aI39
aI28
aI12
aI0
aI12
aI17
aI9
aI7
aI7
aI26
aI40
aI51
aI14
aI16
aI28
aI0
aI10
aI28
aI35
aI30
aI24
aI32
aI9
aI28
aI0
aI27
aI44
aI75
aI28
aI12
aI11
aI16
aI23
aI33
aI9
aI27
aI26
aI17
aI10
aI27
aI5
aI30
aI0
aI5
aI0
aI65
aI71
aI48
aI72
aI18
aI5
aI27
aI38
aI44
aI53
aI55
aI69
aI80
aI24
aI30
aI36
aI46
aI39
aI28
aI19
aI74
aI24
aI5
aI8
aI8
aI6
aI38
aI8
aI25
aI30
aI20
aI48
aI2
aI8
aI48
aI4
aI10
aI19
aI5
aI72
aI87
aI12
aI21
aI48
aI36
aI5
aI37
aI9
aI8
aI47
aI15
aI43
aI3
aI13
aI25
aI28
aI7
aI22
aI14
aI2
aI21
aI32
aI11
aI28
aI34
aI51
aI2
aI16
aI4
aI13
aI19
aI19
aI19
aI40
aI50
aI13
aI18
aI26
aI31
aI34
aI24
aI1
aI0
aI15
aI0
aI15
aI56
aI22
aI24
aI33
aI66
aI23
aI34
aI43
aI53
aI37
aI28
aI37
aI28
aI20
aI0
aI35
aI48
aI60
aI66
aI75
aI10
aI24
aI47
aI6
aI17
aI30
aI35
aI41
aI41
aI64
aI81
aI16
aI12
aI33
aI35
aI5
aI26
aI30
aI16
aI40
aI33
aI29
aI12
aI28
aI21
aI35
aI34
aI58
aI7
aI19
aI36
aI37
aI54
aI77
aI31
aI50
aI52
aI26
aI54
aI51
aI51
aI39
aI34
aI75
aI65
aI59
aI46
aI81
aI28
aI86
aI17
aI59
aI22
aI0
aI0
aI4
aI8
aI22
aI26
aI1
aI16
aI23
aI43
aI26
aI7
aI7
aI25
aI45
aI39
aI26
aI16
aI19
aI20
aI13
aI1
aI2
aI7
aI43
aI14
aI24
aI13
aI13
aI33
aI19
aI22
aI4
aI34
aI4
aI15
aI0
aI8
aI22
aI58
aI34
aI20
aI29
aI27
aI42
aI60
aI63
aI56
aI20
aI27
aI47
aI7
aI5
aI34
aI37
aI42
aI13
aI39
aI13
aI14
aI0
aI22
aI30
aI45
aI53
aI17
aI27
aI0
aI52
aI66
aI7
aI16
aI23
aI36
aI52
aI10
aI22
aI55
aI65
aI73
aI4
aI0
aI12
aI17
aI18
aI16
aI24
aI9
aI27
aI60
aI7
aI28
aI16
aI34
aI33
aI5
aI0
aI28
aI17
aI9
aI39
aI25
aI7
aI50
aI0
aI0
aI5
aI28
aI5
aI9
aI22
aI31
aI14
aI54
aI51
aI41
aI63
aI22
aI37
aI48
aI17
aI31
aI40
aI27
aI25
aI17
aI14
aI38
aI8
aI17
aI22
aI2
aI47
aI12
aI1
aI33
aI51
aI6
aI25
aI2
aI5
aI21
aI22
aI48
aI54
aI5
aI25
aI1
aI11
aI4
aI42
aI27
aI2
aI67
aI49
aI14
aI48
aI17
aI39
aI62
aI23
aI17
aI23
aI12
aI30
aI38
aI27
aI9
aI10
aI31
aI40
aI21
aI47
aI16
aI54
aI4
aI19
aI13
aI26
aI7
aI7
aI6
aI2
aI69
aI23
aI30
aI55
aI45
aI61
aI2
aI8
aI16
aI29
aI54
aI11
aI11
aI46
aI52
aI61
aI18
aI35
aI13
aI30
aI45
aI15
aI57
aI10
aI21
aI13
aI27
aI36
aI27
aI43
aI6
aI28
aI55
aI40
aI11
aI37
aI29
aI9
aI23
aI32
aI59
aI32
aI33
aI8
aI22
aI4
aI2
aI6
aI23
aI33
aI26
aI51
aI67
aI42
aI39
aI34
aI57
aI13
aI1
aI31
aI32
aI0
aI11
aI31
aI34
aI10
aI44
aI39
aI48
aI11
aI23
aI9
aI5
aI24
aI26
aI15
aI34
aI16
aI7
aI0
aI24
aI38
aI58
aI20
aI5
aI3
aI4
aI35
aI66
aI25
aI31
aI19
aI28
aI10
aI5
aI17
aI19
aI27
aI34
aI5
aI22
aI0
aI0
aI10
aI25
aI41
aI14
aI34
aI3
aI10
aI15
aI16
aI9
aI10
aI25
aI52
aI8
aI31
aI12
aI16
aI34
aI16
aI29
aI19
aI36
aI2
aI17
aI8
aI16
aI25
aI6
aI22
aI33
aI74
aI0
aI11
aI23
aI28
aI45
aI23
aI15
aI4
aI26
aI10
aI13
aI8
aI0
aI17
aI75
aI55
aI30
aI17
aI25
aI36
aI5
aI52
aI19
aI0
aI9
aI35
aI9
aI7
aI12
aI20
aI58
aI62
aI38
aI50
aI78
aI80
aI45
aI50
aI64
aI25
aI20
aI34
aI7
aI23
aI0
aI5
aI20
aI43
aI30
aI23
aI37
aI19
aI62
aI10
aI4
aI10
aI16
aI39
aI40
aI36
aI64
aI14
aI4
aI0
aI5
aI19
aI43
aI50
aI38
aI45
aI16
aI41
aI21
aI11
aI2
aI17
aI12
aI13
aI18
aI28
aI45
aI9
aI3
aI23
aI6
aI18
aI15
aI0
aI5
aI9
aI29
aI48
aI65
aI24
aI12
aI27
aI36
aI24
aI22
aI3
aI23
aI27
aI38
aI53
aI12
aI7
aI24
aI47
aI16
aI29
aI51
aI58
aI59
aI76
aI67
aI48
aI40
aI29
aI85
aI7
aI5
aI3
aI9
aI9
aI23
aI35
aI24
aI12
aI42
aI11
aI22
aI9
aI51
aI39
aI29
aI37
aI50
aI11
aI9
aI14
aI17
aI38
aI41
aI54
aI73
aI24
aI25
aI58
aI29
aI19
aI8
aI5
aI33
aI35
aI11
aI0
aI11
aI9
aI21
aI34
aI37
aI52
aI61
aI4
aI24
aI38
aI77
aI71
aI58
aI45
aI34
aI37
aI29
aI33
aI69
aI64
aI81
aI41
aI16
aI75
aI0
aI43
aI2
aI14
aI26
aI16
aI28
aI40
aI46
aI10
aI11
aI39
aI33
aI28
aI9
aI0
aI5
aI10
aI1
aI26
aI46
aI15
aI0
aI5
aI22
aI1
aI6
aI14
aI45
aI17
aI37
aI21
aI20
aI14
aI61
aI35
aI11
aI29
aI24
aI33
aI6
aI0
aI23
aI32
aI6
aI15
aI12
aI0
aI0
aI5
aI22
aI9
aI56
aI51
aI38
aI16
aI19
aI43
aI56
aI18
aI22
aI40
aI59
aI24
aI22
aI27
aI53
aI55
aI25
aI28
aI0
aI16
aI32
aI3
aI28
aI8
aI14
aI9
aI24
aI7
aI20
aI36
aI46
aI19
aI49
aI53
aI69
aI40
aI83
aI85
aI20
aI19
aI13
aI14
aI24
aI41
aI32
aI9
aI9
aI17
aI9
aI6
aI0
aI0
aI11
aI65
aI50
aI5
aI6
aI45
aI40
aI11
aI5
aI47
aI9
aI11
aI19
aI0
aI12
aI0
aI5
aI17
aI0
aI26
aI17
aI32
aI22
aI41
aI7
aI5
aI10
aI9
aI13
aI18
aI38
aI27
aI14
aI42
aI55
aI76
aI14
aI18
aI9
aI23
aI3
aI6
aI41
aI10
aI0
aI14
aI5
aI0
aI26
aI9
aI9
aI35
aI20
aI5
aI1
aI18
aI10
aI0
aI14
aI16
aI2
aI17
aI18
aI24
aI28
aI37
aI26
aI21
aI4
aI0
aI15
aI42
aI14
aI28
aI36
aI17
aI0
aI10
aI18
aI6
aI24
aI67
aI42
aI27
aI24
aI22
aI18
aI48
aI9
aI25
aI32
aI24
aI16
aI19
aI3
aI5
aI3
aI1
aI3
aI16
aI13
aI35
aI36
aI73
aI59
aI42
aI48
aI48
aI58
aI71
aI84
aI13
aI25
aI37
aI1
aI8
aI14
aI6
aI8
aI8
aI37
aI52
aI74
aI47
aI16
aI26
aI21
aI37
aI42
aI37
aI4
aI26
aI19
aI7
aI11
aI9
aI28
aI40
aI4
aI18
aI17
aI38
aI13
aI21
aI4
aI24
aI65
aI39
aI55
aI32
aI22
aI4
aI5
aI19
aI36
aI7
aI24
aI6
aI24
aI35
aI46
aI59
aI77
aI49
aI55
aI57
aI44
aI30
aI14
aI18
aI20
aI32
aI2
aI7
aI28
aI32
aI14
aI12
aI15
aI4
aI19
aI12
aI15
aI10
aI23
aI39
aI5
aI19
aI23
aI33
aI53
aI1
aI11
aI15
aI20
aI9
aI75
aI9
aI22
aI6
aI2
aI28
aI17
aI21
aI48
aI42
aI28
aI17
aI12
aI21
aI6
aI20
aI34
aI25
aI37
aI52
aI44
aI30
aI12
aI19
aI27
aI15
aI31
aI6
aI25
aI48
aI31
aI0
aI13
aI12
aI51
aI2
aI6
aI24
aI28
aI25
aI53
aI74
aI14
aI22
aI43
aI36
aI0
aI26
aI37
aI1
aI65
aI6
aI50
aI55
aI33
aI27
aI34
aI7
aI12
aI25
aI2
aI0
aI6
aI29
aI11
aI44
aI24
aI24
aI14
aI31
aI21
aI7
aI16
aI17
aI0
aI14
aI28
aI9
aI0
aI42
aI18
aI12
aI9
aI19
aI41
aI40
aI9
aI1
aI0
aI7
aI28
aI4
aI12
aI14
aI25
aI29
aI16
aI37
aI1
aI13
aI6
aI30
aI7
aI18
aI8
aI17
aI29
aI44
aI2
aI11
aI67
aI68
aI18
aI38
aI9
aI31
aI22
aI11
aI38
aI12
aI2
aI38
aI6
aI24
aI34
aI40
aI0
aI46
aI31
aI44
aI47
aI13
aI42
aI48
aI17
aI0
aI9
aI26
aI63
aI68
aI15
aI45
aI14
aI0
aI0
aI15
aI23
aI11
aI15
aI37
aI34
aI40
aI13
aI27
aI2
aI0
aI16
aI37
aI52
aI77
aI15
aI46
aI33
aI3
aI8
aI74
aI23
aI53
aI84
aI7
aI5
aI17
aI22
aI63
aI8
aI24
aI12
aI21
aI50
aI16
aI38
aI43
aI0
aI37
aI7
aI19
aI17
aI37
aI25
aI16
aI13
aI18
aI25
aI34
aI47
aI4
aI8
aI19
aI6
aI57
aI19
aI3
aI15
aI27
aI33
aI34
aI61
aI58
aI24
aI33
aI45
aI45
aI55
aI21
aI32
aI45
aI42
aI13
aI27
aI14
aI41
aI18
aI45
aI31
aI20
aI40
aI43
aI30
aI33
aI9
aI20
aI37
aI34
aI29
aI65
aI57
aI15
aI21
aI0
aI8
aI27
aI10
aI36
aI68
aI0
aI5
aI36
aI4
aI11
aI33
aI34
aI40
aI29
aI41
aI70
aI79
aI52
aI45
aI13
aI27
aI26
aI50
aI65
aI42
aI19
aI31
aI30
aI50
aI42
aI54
aI0
aI33
aI0
aI6
aI9
aI35
aI11
aI2
aI14
aI20
aI0
aI40
aI0
aI15
aI66
aI79
aI0
aI11
aI12
aI36
aI49
aI75
aI66
aI13
aI7
aI12
aI37
aI18
aI34
aI37
aI14
aI58
aI68
aI81
aI27
aI15
aI21
aI3
aI19
aI24
aI74
aI62
aI47
aI33
aI6
aI13
aI17
aI26
aI15
aI33
aI0
aI0
aI11
aI23
aI40
aI6
aI35
aI46
aI19
aI14
aI7
aI25
aI7
aI15
aI34
aI57
aI9
aI36
aI55
aI18
aI12
aI29
aI43
aI50
aI51
aI24
aI28
aI14
aI15
aI63
aI65
aI59
aI52
aI72
aI73
aI18
aI17
aI24
aI19
aI28
aI42
aI50
aI58
aI68
aI37
aI24
aI21
aI27
aI25
aI11
aI37
aI47
aI28
aI23
aI63
aI63
aI57
aI37
aI72
aI0
aI11
aI0
aI18
aI38
aI42
aI20
aI31
aI18
aI20
aI43
aI70
aI83
aI35
aI9
aI26
aI36
aI20
aI27
aI10
aI12
aI77
aI57
aI49
aI10
aI43
aI31
aI42
aI39
aI9
aI19
aI48
aI5
aI16
aI47
aI19
aI2
aI0
aI41
aI15
aI46
aI23
aI51
aI68
aI17
aI8
aI34
aI40
aI67
aI48
aI34
aI15
aI27
aI17
aI36
aI59
aI18
aI18
aI29
aI40
aI59
aI0
aI34
aI13
aI24
aI32
aI8
aI3
aI14
aI25
aI61
aI61
aI0
aI10
aI17
aI25
aI42
aI18
aI32
aI20
aI40
aI58
aI8
aI23
aI30
aI16
aI31
aI37
aI18
aI19
aI16
aI0
aI44
aI3
aI54
aI8
aI3
aI9
aI27
aI7
aI7
aI3
aI5
aI7
aI9
aI12
aI15
aI10
aI14
aI18
aI29
aI38
aI14
aI6
aI19
aI6
aI21
aI18
aI20
aI36
aI47
aI9
aI32
aI30
aI0
aI29
aI43
aI53
aI2
aI3
aI9
aI10
aI16
aI5
aI20
aI15
aI32
aI63
aI16
aI18
aI45
aI29
aI11
aI6
aI7
aI15
aI35
aI59
aI41
aI45
aI85
aI14
aI10
aI0
aI52
aI48
aI56
aI11
aI23
aI62
aI75
aI22
aI8
aI15
aI30
aI30
aI14
aI16
aI20
aI26
aI52
aI39
aI26
aI35
aI38
aI39
aI57
aI20
aI9
aI31
aI1
aI17
aI24
aI4
aI10
aI27
aI64
aI6
aI7
aI12
aI8
aI14
aI0
aI10
aI0
aI8
aI0
aI42
aI65
aI1
aI7
aI15
aI10
aI38
aI1
aI18
aI42
aI29
aI39
aI6
aI20
aI22
aI31
aI45
aI51
aI61
aI62
aI39
aI33
aI26
aI20
aI9
aI26
aI38
aI42
aI34
aI23
aI31
aI52
aI72
aI56
aI34
aI63
aI12
aI7
aI15
aI23
aI29
aI6
aI15
aI20
aI26
aI8
aI13
aI14
aI2
aI29
aI52
aI0
aI14
aI1
aI16
aI5
aI16
aI22
aI8
aI5
aI21
aI30
aI20
aI4
aI44
aI8
aI25
aI40
aI4
aI2
aI14
aI2
aI11
aI34
aI9
aI23
aI11
aI25
aI38
aI0
aI25
aI16
aI18
aI21
aI12
aI12
aI22
aI44
aI63
aI67
aI40
aI0
aI33
aI39
aI16
aI81
aI1
aI28
aI69
aI4
aI12
aI80
aI14
aI61
aI65
aI2
aI3
aI7
aI13
aI17
aI24
aI15
aI28
aI14
aI30
aI56
aI70
aI24
aI0
aI14
aI16
aI36
aI32
aI51
aI0
aI34
aI45
aI71
aI20
aI19
aI62
aI51
aI62
aI45
aI8
aI9
aI9
aI5
aI10
aI15
aI37
aI68
aI9
aI29
aI44
aI47
aI36
aI47
aI69
aI62
aI58
aI80
aI23
aI42
aI20
aI46
aI6
aI8
aI25
aI6
aI23
aI34
aI4
aI0
aI8
aI28
aI0
aI26
aI44
aI20
aI14
aI26
aI12
aI1
aI14
aI3
aI21
aI28
aI22
aI9
aI36
aI62
aI71
aI39
aI69
aI55
aI71
aI28
aI35
aI69
aI75
aI2
aI14
aI2
aI7
aI15
aI6
aI15
aI2
aI11
aI18
aI5
aI9
aI0
aI0
aI17
aI23
aI41
aI41
aI48
aI66
aI72
aI76
aI36
aI7
aI40
aI63
aI73
aI76
aI0
aI0
aI0
aI6
aI7
aI5
aI11
aI14
aI34
aI52
aI19
aI12
aI14
aI23
aI38
aI40
aI10
aI11
aI23
aI17
aI10
aI24
aI41
aI25
aI56
aI24
aI36
aI2
aI4
aI16
aI6
aI14
aI0
aI31
aI43
aI4
aI16
aI37
aI51
aI33
aI40
aI23
aI10
aI8
aI22
aI28
aI37
aI26
aI26
aI3
aI10
aI54
aI30
aI44
aI58
aI31
aI44
aI19
aI55
aI3
aI48
aI5
aI16
aI7
aI15
aI22
aI38
aI36
aI19
aI75
aI42
aI55
aI36
aI16
aI12
aI22
aI49
aI41
aI0
aI11
aI1
aI8
aI18
aI30
aI14
aI43
aI50
aI59
aI10
aI1
aI6
aI16
aI20
aI9
aI12
aI38
aI13
aI62
aI1
aI6
aI27
aI38
aI40
aI55
aI14
aI2
aI6
aI11
aI19
aI32
aI50
aI0
aI19
aI0
aI9
aI12
aI38
aI74
aI8
aI22
aI38
aI59
aI6
aI12
aI25
aI23
aI37
aI2
aI0
aI28
aI17
aI41
aI36
aI11
aI60
aI31
aI25
aI76
aI78
aI18
aI16
aI12
aI31
aI51
aI54
aI30
aI42
aI0
aI18
aI65
aI51
aI29
aI16
aI53
aI27
aI46
aI27
aI42
aI66
aI18
aI15
aI45
aI30
aI40
aI29
aI23
aI40
aI18
aI4
aI47
aI16
aI4
aI13
aI1
aI37
aI76
aI65
aI59
aI4
aI12
aI42
aI58
aI64
aI46
aI35
aI63
aI84
aI21
aI41
aI44
aI28
aI14
aI27
aI12
aI4
aI24
aI7
aI14
aI11
aI34
aI48
aI69
aI22
aI23
aI16
aI28
aI19
aI0
aI27
aI10
aI18
aI12
aI4
aI7
aI19
aI0
aI24
aI50
aI19
aI30
aI19
aI43
aI52
aI75
aI57
aI35
aI35
aI74
aI21
aI44
aI38
aI53
aI49
aI18
aI17
aI4
aI20
aI49
aI35
aI69
aI2
aI14
aI21
aI46
aI58
aI80
aI28
aI42
aI3
aI17
aI52
aI41
aI71
aI9
aI32
aI8
aI23
aI38
aI8
aI24
aI37
aI46
aI54
aI71
aI49
aI28
aI64
aI73
aI38
aI5
aI18
aI31
aI40
aI58
aI17
aI37
aI45
aI14
aI47
aI48
aI49
aI81
aI83
aI28
aI58
aI75
aI67
aI25
aI35
aI15
aI0
aI37
aI53
aI57
aI45
aI23
aI27
aI1
aI69
aI9
aI7
aI3
aI17
aI29
aI3
aI17
aI29
aI31
aI59
aI66
aI44
aI40
aI14
aI35
aI4
aI18
aI11
aI0
aI12
aI13
aI6
aI16
aI31
aI10
aI43
aI8
aI35
aI38
aI42
aI59
aI11
aI22
aI24
aI27
aI33
aI51
aI32
aI13
aI21
aI27
aI62
aI18
aI24
aI31
aI35
aI40
aI15
aI15
aI7
aI54
aI20
aI7
aI7
aI8
aI19
aI56
aI21
aI36
aI4
aI6
aI15
aI21
aI27
aI25
aI24
aI46
aI56
aI12
aI19
aI63
aI39
aI72
aI21
aI14
aI26
aI8
aI10
aI0
aI23
aI0
aI12
aI24
aI15
aI4
aI76
aI39
aI42
aI27
aI24
aI22
aI1
aI9
aI43
aI45
aI26
aI64
aI49
aI35
aI54
aI3
aI15
aI24
aI15
aI16
aI11
aI1
aI14
aI0
aI26
aI0
aI5
aI30
aI38
aI9
aI2
aI7
aI41
aI34
aI0
aI3
aI3
aI7
aI2
aI5
aI5
aI12
aI9
aI38
aI30
aI10
aI36
aI58
aI9
aI61
aI10
aI9
aI13
aI5
aI46
aI0
aI0
aI26
aI28
aI8
aI52
aI54
aI17
aI10
aI12
aI3
aI8
aI0
aI5
aI16
aI18
aI0
aI7
aI22
aI0
aI11
aI25
aI23
aI3
aI7
aI23
aI27
aI29
aI11
aI18
aI64
aI19
aI55
aI38
aI2
aI13
aI6
aI21
aI22
aI8
aI22
aI20
aI28
aI20
aI31
aI14
aI20
aI25
aI1
aI6
aI44
aI8
aI22
aI48
aI2
aI9
aI22
aI12
aI1
aI20
aI26
aI27
aI46
aI20
aI3
aI21
aI41
aI61
aI7
aI13
aI0
aI14
aI8
aI22
aI61
aI74
aI73
aI48
aI5
aI8
aI10
aI5
aI9
aI28
aI28
aI32
aI66
aI18
aI19
aI60
aI73
aI29
aI35
aI0
aI0
aI0
aI19
aI23
aI15
aI20
aI24
aI16
aI16
aI23
aI24
aI39
aI60
aI25
aI33
aI28
aI17
aI3
aI4
aI12
aI19
aI5
aI23
aI35
aI17
aI21
aI11
aI2
aI5
aI41
aI26
aI2
aI10
aI1
aI10
aI48
aI41
aI47
aI9
aI16
aI21
aI23
aI33
aI0
aI0
aI18
aI7
aI5
aI4
aI11
aI4
aI9
aI3
aI9
aI7
aI13
aI29
aI19
aI4
aI32
aI0
aI8
aI7
aI33
aI60
aI24
aI19
aI23
aI16
aI42
aI38
aI26
aI10
aI24
aI12
aI40
aI21
aI25
aI5
aI32
aI2
aI10
aI21
aI8
aI41
aI14
aI16
aI13
aI0
aI6
aI20
aI0
aI0
aI31
aI41
aI9
aI14
aI5
aI30
aI67
aI2
aI0
aI23
aI44
aI37
aI38
aI72
aI0
aI3
aI15
aI22
aI32
aI25
aI14
aI25
aI16
aI26
aI43
aI42
aI16
aI0
aI18
aI22
aI8
aI37
aI71
aI18
aI28
aI31
aI34
aI18
aI27
aI24
aI30
aI31
aI36
aI63
aI11
aI11
aI1
aI14
aI13
aI12
aI26
aI5
aI10
aI18
aI35
aI29
aI42
aI15
aI29
aI52
aI79
aI82
aI32
aI41
aI54
aI17
aI2
aI15
aI19
aI20
aI36
aI62
aI36
aI57
aI62
aI60
aI40
aI70
aI49
aI7
aI12
aI25
aI53
aI6
aI2
aI10
aI7
aI25
aI31
aI0
aI10
aI27
aI29
aI17
aI21
aI29
aI44
aI59
aI43
aI12
aI13
aI36
aI13
aI30
aI6
aI6
aI12
aI0
aI2
aI44
aI31
aI53
aI8
aI25
aI17
aI44
aI9
aI7
aI4
aI40
aI76
aI4
aI12
aI9
aI17
aI39
aI81
aI37
aI51
aI29
aI13
aI21
aI14
aI2
aI16
aI26
aI27
aI15
aI26
aI33
aI7
aI21
aI64
aI51
aI49
aI39
aI47
aI20
aI28
aI24
aI32
aI72
aI25
aI28
aI40
aI48
aI0
aI0
aI18
aI30
aI45
aI67
aI43
aI36
aI6
aI83
aI82
aI4
aI0
aI37
aI77
aI63
aI84
aI37
aI71
aI3
aI28
aI52
aI64
aI30
aI17
aI41
aI39
aI46
aI6
aI18
aI0
aI18
aI36
aI13
aI26
aI17
aI28
aI11
aI5
aI17
aI3
aI3
aI23
aI28
aI34
aI35
aI18
aI22
aI36
aI38
aI72
aI13
aI75
aI25
aI6
aI16
aI21
aI31
aI8
aI9
aI12
aI7
aI19
aI31
aI49
aI35
aI2
aI14
aI49
aI37
aI66
aI4
aI0
aI8
aI4
aI37
aI44
aI56
aI47
aI14
aI31
aI36
aI1
aI3
aI3
aI30
aI7
aI17
aI26
aI25
aI31
aI62
aI0
aI6
aI17
aI24
aI50
aI0
aI0
aI11
aI0
aI0
aI12
aI32
aI17
aI31
aI48
aI0
aI25
aI33
aI62
aI60
aI36
aI29
aI20
aI33
aI51
aI40
aI46
aI7
aI18
aI53
aI48
aI35
aI6
aI9
aI39
aI9
aI12
aI8
aI17
aI25
aI45
aI26
aI25
aI49
aI48
aI27
aI30
aI11
aI30
aI38
aI52
aI21
aI23
aI34
aI60
aI25
aI15
aI36
aI33
aI8
aI21
aI33
aI51
aI6
aI27
aI22
aI25
aI29
aI60
aI44
aI60
aI5
aI29
aI53
aI43
aI7
aI18
aI25
aI14
aI21
aI45
aI9
aI15
aI19
aI23
aI34
aI41
aI42
aI58
aI25
aI28
aI52
aI42
aI61
aI21
aI32
aI48
aI22
aI17
aI18
aI35
aI23
aI58
aI42
aI65
aI18
aI14
aI14
aI13
aI26
aI7
aI4
aI23
aI30
aI22
aI2
aI35
aI57
aI16
aI22
aI24
aI26
aI16
aI1
aI15
aI24
aI80
aI28
aI10
aI0
aI16
aI34
aI48
aI0
aI6
aI10
aI30
aI0
aI26
aI41
aI48
aI62
aI3
aI18
aI39
aI1
aI37
aI44
aI64
aI24
aI36
aI10
aI11
aI3
aI4
aI0
aI15
aI22
aI32
aI55
aI20
aI9
aI7
aI19
aI15
aI4
aI11
aI3
aI3
aI20
aI38
aI5
aI14
aI25
aI1
aI12
aI17
aI10
aI30
aI31
aI19
aI41
aI25
aI21
aI24
aI39
aI12
aI51
aI74
aI33
aI11
aI28
aI1
aI6
aI32
aI59
aI35
aI22
aI15
aI23
aI10
aI11
aI11
aI9
aI43
aI68
aI15
aI27
aI4
aI12
aI19
aI28
aI39
aI11
aI16
aI38
aI28
aI74
aI10
aI13
aI7
aI21
aI12
aI28
aI66
aI46
aI29
aI19
aI28
aI36
aI30
aI12
aI45
aI2
aI13
aI23
aI0
aI5
aI11
aI18
aI28
aI39
aI50
aI10
aI27
aI52
aI11
aI6
aI20
aI19
aI12
aI7
aI8
aI24
aI4
aI0
aI18
aI29
aI3
aI4
aI16
aI25
aI7
aI28
aI42
aI50
aI68
aI0
aI26
aI50
aI62
aI80
aI75
aI10
aI0
aI9
aI7
aI37
aI38
aI47
aI33
aI37
aI5
aI38
aI16
aI8
aI37
aI9
aI21
aI6
aI11
aI16
aI10
aI4
aI29
aI3
aI6
aI14
aI5
aI16
aI34
aI54
aI56
aI12
aI22
aI32
aI31
aI37
aI10
aI24
aI13
aI19
aI20
aI15
aI7
aI21
aI6
aI12
aI19
aI25
aI42
aI60
aI74
aI0
aI17
aI0
aI35
aI37
aI15
aI29
aI52
aI65
aI67
aI27
aI25
aI22
aI29
aI37
aI15
aI40
aI8
aI27
aI9
aI0
aI12
aI41
aI49
aI41
aI32
aI36
aI33
aI29
aI17
aI21
aI25
aI26
aI25
aI20
aI41
aI36
aI6
aI5
aI0
aI16
aI74
aI3
aI55
aI17
aI32
aI3
aI13
aI25
aI31
aI49
aI32
aI24
aI29
aI45
aI0
aI25
aI24
aI1
aI0
aI35
aI42
aI10
aI21
aI5
aI6
aI0
aI4
aI11
aI22
aI25
aI29
aI15
aI14
aI23
aI14
aI43
aI21
aI4
aI9
aI24
aI20
aI14
aI23
aI7
aI18
aI1
aI34
aI37
aI14
aI1
aI13
aI0
aI0
aI19
aI26
aI46
aI9
aI26
aI13
aI17
aI30
aI60
aI83
aI24
aI15
aI36
aI39
aI21
aI28
aI39
aI14
aI14
aI32
aI44
aI53
aI28
aI63
aI1
aI15
aI20
aI51
aI69
aI84
aI51
aI69
aI84
aI12
aI35
aI55
aI66
aI0
aI5
aI27
aI8
aI15
aI20
aI28
aI37
aI41
aI44
aI51
aI41
aI47
aI36
aI56
aI23
aI17
aI11
aI12
aI35
aI51
aI70
aI8
aI22
aI35
aI46
aI11
aI8
aI14
aI11
aI27
aI0
aI0
aI10
aI18
aI45
aI61
aI54
aI21
aI26
aI35
aI48
aI84
aI12
aI48
aI65
aI45
aI29
aI12
aI24
aI38
aI51
aI5
aI12
aI14
aI17
aI17
aI26
aI39
aI42
aI41
aI3
aI16
aI33
aI35
aI21
aI0
aI4
aI33
aI36
aI17
aI25
aI38
aI27
aI5
aI26
aI0
aI5
aI24
aI10
aI8
aI14
aI5
aI17
aI0
aI15
aI10
aI23
aI14
aI19
aI15
aI33
aI21
aI7
aI6
aI23
aI20
aI13
aI9
aI13
aI0
aI5
aI26
aI27
aI34
aI19
aI42
aI0
aI0
aI60
aI9
aI47
aI64
aI2
aI1
aI13
aI40
aI39
aI7
aI50
aI12
aI4
aI34
aI1
aI5
aI0
aI30
aI40
aI53
aI56
aI62
aI63
aI12
aI5
aI39
aI14
aI26
aI2
aI23
aI15
aI21
aI25
aI38
aI23
aI23
aI3
aI56
aI10
aI21
aI33
aI0
aI31
aI41
aI13
aI0
aI51
aI31
aI41
aI13
aI64
aI2
aI13
aI16
aI35
aI58
aI7
aI6
aI15
aI27
aI49
aI57
aI59
aI50
aI40
aI53
aI26
aI11
aI26
aI21
aI46
aI64
aI36
aI23
aI36
aI18
aI25
aI30
aI35
aI38
aI56
aI15
aI16
aI24
aI36
aI12
aI22
aI27
aI26
aI46
aI15
aI17
aI34
aI10
aI35
aI12
aI42
aI3
aI15
aI38
aI10
aI15
aI12
aI24
aI14
aI67
aI30
aI53
aI62
aI62
aI84
aI11
aI28
aI14
aI9
aI9
aI15
aI48
aI21
aI15
aI28
aI14
aI31
aI19
aI17
aI20
aI30
aI29
aI16
aI3
aI30
aI57
aI16
aI23
aI30
aI0
aI7
aI27
aI53
aI48
aI40
aI13
aI31
aI23
aI9
aI21
aI31
aI9
aI22
aI6
aI25
aI11
aI29
aI17
aI6
aI28
aI33
aI60
aI52
aI76
aI9
aI10
aI53
aI39
aI51
aI58
aI17
aI47
aI24
aI32
aI13
aI4
aI0
aI14
aI15
aI34
aI24
aI3
aI62
aI28
aI3
aI20
aI37
aI3
aI11
aI28
aI2
aI17
aI9
aI6
aI11
aI36
aI24
aI19
aI7
aI8
aI23
aI0
aI0
aI0
aI0
aI39
aI65
aI39
aI50
aI65
aI25
aI32
aI40
aI51
aI5
aI62
aI38
aI46
aI30
aI8
aI21
aI38
aI56
aI0
aI0
aI3
aI5
aI39
aI20
aI25
aI33
aI52
aI8
aI16
aI1
aI40
aI52
aI70
aI8
aI21
aI32
aI20
aI26
aI33
aI39
aI41
aI51
aI53
aI48
aI39
aI11
aI29
aI23
aI2
aI16
aI25
aI0
aI17
aI28
aI36
aI47
aI24
aI5
aI42
aI19
aI37
aI24
aI27
aI35
aI14
aI35
aI14
aI0
aI8
aI20
aI37
aI33
aI43
aI55
aI14
aI34
aI59
aI37
aI29
aI43
aI26
aI3
aI9
aI26
aI43
aI17
aI0
aI9
aI15
aI10
aI31
aI40
aI47
aI52
aI8
aI61
aI67
aI9
aI22
aI0
aI8
aI17
aI68
aI53
aI37
aI27
aI47
aI37
aI29
aI54
aI33
aI21
aI8
aI0
aI69
aI1
aI56
aI9
aI16
aI44
aI64
aI78
aI25
aI28
aI55
aI38
aI53
aI23
aI19
aI12
aI3
aI28
aI16
aI0
aI48
aI69
aI76
aI75
aI80
aI56
aI36
aI44
aI2
aI16
aI20
aI23
aI24
aI13
aI0
aI19
aI5
aI0
aI13
aI17
aI48
aI7
aI33
aI0
aI0
aI38
aI25
aI26
aI38
aI2
aI12
aI0
aI14
aI38
aI50
aI71
aI83
aI28
aI32
aI13
aI56
aI73
aI81
aI45
aI39
aI13
aI34
aI18
aI14
aI21
aI27
aI7
aI24
aI50
aI36
aI35
aI65
aI16
aI11
aI23
aI47
aI10
aI17
aI24
aI11
aI0
aI16
aI33
aI3
aI20
aI0
aI0
aI36
aI20
aI18
aI29
aI0
aI11
aI19
aI0
aI12
aI19
aI26
aI21
aI32
aI51
aI64
aI14
aI36
aI5
aI11
aI22
aI23
aI14
aI23
aI29
aI38
aI51
aI62
aI73
aI0
aI5
aI23
aI21
aI34
aI7
aI3
aI21
aI3
aI10
aI4
aI29
aI8
aI6
aI19
aI25
aI13
aI2
aI10
aI39
aI7
aI24
aI4
aI30
aI12
aI29
aI36
aI45
aI19
aI26
aI5
aI21
aI0
aI0
aI2
aI3
aI5
aI13
aI14
aI15
aI55
aI0
aI7
aI21
aI32
aI0
aI1
aI13
aI37
aI45
aI44
aI35
aI40
aI31
aI30
aI56
aI2
aI10
aI4
aI22
aI20
aI5
aI32
aI44
aI51
aI64
aI75
aI82
aI28
aI9
aI0
aI19
aI17
aI21
aI22
aI12
aI13
aI51
aI0
aI33
aI6
aI56
aI69
aI16
aI4
aI31
aI17
aI29
aI67
aI69
aI27
aI69
aI37
aI39
aI49
aI43
aI33
aI44
aI50
aI63
aI18
aI27
aI46
aI20
aI15
aI23
aI45
aI59
aI38
aI16
aI17
aI20
aI37
aI0
aI10
aI27
aI38
aI32
aI39
aI24
aI50
aI10
aI25
aI35
aI19
aI23
aI36
aI14
aI1
aI24
aI27
aI31
aI10
aI22
aI6
aI11
aI14
aI8
aI67
aI74
aI45
aI2
aI9
aI21
aI48
aI13
aI16
aI12
aI21
aI53
aI60
aI40
aI46
aI11
aI11
aI24
aI52
aI8
aI20
aI19
aI14
aI37
aI8
aI9
aI19
aI26
aI1
aI7
aI0
aI12
aI5
aI21
aI34
aI12
aI36
aI27
aI15
aI26
aI35
aI48
aI37
aI28
aI9
aI30
aI0
aI20
aI29
aI24
aI0
aI0
aI0
aI0
aI0
aI9
aI21
aI24
aI4
aI2
aI9
aI1
aI32
aI53
aI8
aI27
aI12
aI20
aI30
aI34
aI49
aI57
aI23
aI34
aI38
aI40
aI44
aI51
aI51
aI54
aI55
aI10
aI1
aI49
aI10
aI9
aI18
aI57
aI34
aI34
aI19
aI5
aI18
aI60
aI62
aI72
aI25
aI34
aI23
aI13
aI50
aI36
aI23
aI45
aI19
aI46
aI31
aI40
aI20
aI18
aI33
aI41
aI21
aI24
aI14
aI23
aI40
aI3
aI33
aI21
aI20
aI48
aI49
aI39
aI18
aI20
aI31
aI38
aI20
aI30
aI25
aI56
aI4
aI85
aI49
aI41
aI39
aI58
aI42
aI6
aI30
aI11
aI49
aI34
aI52
aI66
aI68
aI11
aI20
aI14
aI16
aI36
aI7
aI48
aI13
aI11
aI58
aI18
aI6
aI10
aI57
aI50
aI32
aI15
aI25
aI3
aI6
aI12
aI3
aI16
aI38
aI1
aI4
aI0
aI17
aI47
aI0
aI0
aI29
aI26
aI16
aI11
aI0
aI0
aI11
aI0
aI17
aI25
aI3
aI23
aI26
aI28
aI2
aI7
aI16
aI24
aI30
aI33
aI30
aI8
aI2
aI8
aI7
aI9
aI12
aI29
aI27
aI18
aI30
aI48
aI42
aI60
aI30
aI35
aI23
aI43
aI13
aI59
aI3
aI46
aI29
aI3
aI54
aI0
aI4
aI9
aI6
aI2
aI18
aI8
aI8
aI17
aI18
aI55
aI2
aI20
aI29
aI12
aI35
aI3
aI16
aI14
aI41
aI61
aI6
aI67
aI55
aI0
aI1
aI24
aI34
aI84
aI68
aI86
aI0
aI5
aI24
aI33
aI1
aI13
aI3
aI22
aI5
aI11
aI18
aI33
aI18
aI19
aI4
aI28
aI42
aI21
aI11
aI32
aI12
aI22
aI35
aI48
aI24
aI21
aI32
aI10
aI24
aI46
aI0
aI8
aI20
aI27
aI58
aI10
aI68
aI2
aI12
aI27
aI13
aI45
aI10
aI7
aI13
aI23
aI36
aI13
aI5
aI13
aI10
aI40
aI13
aI2
aI8
aI35
aI49
aI0
aI0
aI15
aI25
aI67
aI0
aI43
aI3
aI58
aI17
aI2
aI37
aI49
aI3
aI11
aI40
aI9
aI9
aI20
aI31
aI34
aI38
aI51
aI7
aI49
aI36
aI35
aI48
aI17
aI21
aI8
aI0
aI46
aI54
aI1
aI45
aI10
aI23
aI39
aI15
aI11
aI0
aI19
aI17
aI26
aI0
aI9
aI13
aI24
aI29
aI53
aI72
aI40
aI47
aI46
aI35
aI12
aI19
aI25
aI20
aI0
aI2
aI19
aI32
aI42
aI1
aI6
aI10
aI9
aI26
aI0
aI8
aI14
aI13
aI1
aI22
aI4
aI14
aI17
aI34
aI19
aI34
aI20
aI62
aI60
aI30
aI6
aI69
aI18
aI10
aI24
aI45
aI55
aI70
aI24
aI17
aI62
aI9
aI18
aI29
aI65
aI26
aI35
aI17
aI48
aI15
aI23
aI74
aI7
aI32
aI32
aI39
aI45
aI48
aI30
aI20
aI33
aI44
aI53
aI72
aI13
aI46
aI41
aI38
aI30
aI21
aI17
aI20
aI11
aI35
aI28
aI22
aI28
aI16
aI10
aI39
aI15
aI29
aI46
aI16
aI0
aI3
aI17
aI0
aI3
aI39
aI18
aI8
aI13
aI2
aI28
aI41
aI12
aI35
aI48
aI1
aI12
aI25
aI35
aI0
aI26
aI15
aI25
aI20
aI78
aI10
aI19
aI21
aI22
aI32
aI22
aI2
aI0
aI20
aI10
aI29
aI49
aI69
aI24
aI24
aI45
aI47
aI19
aI5
aI4
aI12
aI33
aI37
aI39
aI63
aI80
aI8
aI16
aI16
aI26
aI27
aI40
aI26
aI3
aI4
aI56
aI61
aI6
aI38
aI49
aI68
aI23
aI79
aI61
aI17
aI19
aI22
aI21
aI41
aI67
aI45
aI56
aI11
aI17
aI3
aI18
aI31
aI9
aI12
aI17
aI3
aI9
aI29
aI10
aI4
aI3
aI12
aI6
aI21
aI32
aI1
aI29
aI38
aI52
aI22
aI35
aI61
aI12
aI23
aI10
aI0
aI16
aI20
aI13
aI35
aI18
aI39
aI60
aI9
aI8
aI23
aI42
aI44
aI9
aI37
aI56
aI59
aI32
aI26
aI41
aI70
aI57
aI78
aI25
aI18
aI5
aI0
aI27
aI22
aI62
aI53
aI42
aI51
aI38
aI57
aI69
aI43
aI52
aI11
aI35
aI2
aI5
aI12
aI22
aI29
aI10
aI40
aI13
aI28
aI12
aI16
aI46
aI55
aI35
aI26
aI20
aI27
aI43
aI48
aI38
aI16
aI28
aI28
aI10
aI22
aI35
aI11
aI17
aI16
aI64
aI60
aI43
aI16
aI20
aI28
aI16
aI28
aI15
aI52
aI28
aI38
aI68
aI52
aI74
aI16
aI14
aI28
aI16
aI18
aI75
aI45
aI40
aI16
aI12
aI19
aI27
aI40
aI26
aI28
aI4
aI28
aI21
aI15
aI15
aI32
aI46
aI16
aI45
aI16
aI12
aI26
aI76
aI2
aI3
aI5
aI2
aI0
aI7
aI4
aI14
aI14
aI52
aI32
aI37
aI28
aI52
aI45
aI26
aI52
aI61
aI44
aI47
aI31
aI36
aI44
aI9
aI48
aI2
aI9
aI16
aI51
aI28
aI21
aI14
aI10
aI8
aI17
aI51
aI15
aI41
aI42
aI50
aI15
aI63
aI13
aI27
aI2
aI3
aI64
aI46
aI76
aI27
aI16
aI43
aI44
aI51
aI28
aI15
aI19
aI15
aI11
aI48
aI77
aI29
aI4
aI7
aI25
aI15
aI16
aI26
aI52
aI16
aI4
aI16
aI40
aI22
aI30
aI38
aI40
aI0
aI2
aI12
aI76
aI69
aI51
aI51
aI49
aI15
aI16
aI24
aI12
aI4
aI55
aI57
aI63
aI29
aI64
aI15
aI64
aI31
aI28
aI39
aI32
aI2
aI13
aI52
aI19
aI40
aI42
aI35
aI45
aI7
aI81
aI69
aI65
aI64
aI63
aI51
aI42
aI84
aI33
aI7
aI9
aI28
aI14
aI38
aI27
aI51
aI60
aI17
aI27
aI31
aI46
aI41
aI25
aI34
aI24
aI44
aI51
aI76
aI10
aI1
aI28
aI29
aI19
aI11
aI27
aI27
aI7
aI6
aI83
aI9
aI19
aI24
aI33
aI39
aI41
aI58
aI24
aI27
aI36
aI20
aI13
aI7
aI0
aI52
aI5
aI9
aI16
aI0
aI10
aI52
aI43
aI52
aI13
aI63
aI42
aI64
aI44
aI1
aI9
aI12
aI26
aI64
aI26
aI57
aI70
aI14
aI51
aI47
aI39
aI33
aI32
aI30
aI57
aI61
aI5
aI51
aI35
aI33
aI62
aI12
aI51
aI59
aI47
aI16
aI27
aI33
aI32
aI34
aI27
aI16
aI15
aI76
aI52
aI15
aI10
aI2
aI25
aI36
aI8
aI0
aI15
aI39
aI16
aI27
aI15
aI15
aI27
aI27
aI23
aI36
aI39
aI32
aI15
aI19
aI11
aI22
aI76
aI60
aI86
aI39
aI15
aI16
aI14
aI0
aI7
aI13
aI16
aI40
aI16
aI7
aI40
aI39
aI51
aI40
aI13
aI13
aI15
aI51
aI35
aI11
aI50
aI40
aI42
aI48
aI16
aI0
aI9
aI51
aI40
aI11
aI16
aI16
aI22
aI39
aI28
aI27
aI64
aI52
aI39
aI28
aI26
aI18
aI43
aI15
aI19
aI16
aI23
aI63
aI39
aI28
aI46
aI8
aI27
aI39
aI4
aI27
aI39
aI27
aI16
aI24
aI16
aI47
aI60
aI75
aI3
aI27
aI5
aI16
aI39
aI29
aI11
aI50
aI52
aI52
aI39
aI52
aI16
aI52
aI43
aI18
aI27
aI15
aI28
aI31
aI52
aI42
aI31
aI24
aI16
aI60
aI27
aI57
aI39
aI40
aI32
aI31
aI24
aI40
aI28
aI39
aI15
aI39
aI44
aI26
aI51
aI37
aI53
aI27
aI14
aI29
aI38
aI51
aI61
aI28
aI41
aI24
aI8
aI0
aI0
aI0
aI39
aI28
aI13
aI37
aI3
aI70
aI36
aI23
aI6
aI39
aI84
aI27
aI33
aI27
aI27
aI4
aI10
aI10
aI82
aI63
aI59
aI13
aI26
aI39
aI23
aI60
aI1
aI20
aI33
aI38
aI9
aI77
aI16
aI25
aI26
aI0
aI1
aI50
aI41
aI19
aI63
aI17
aI7
aI14
aI62
aI18
aI16
aI53
aI29
aI1
aI51
aI72
aI40
aI46
aI43
aI62
aI19
aI23
aI86
aI17
aI29
aI26
aI16
aI21
aI38
aI23
aI22
aI50
aI19
aI20
aI5
aI10
aI17
aI20
aI11
aI5
aI15
aI35
aI75
aI65
aI67
aI26
aI26
aI22
aI50
aI71
aI0
aI9
aI14
aI6
aI9
aI25
aI52
aI18
aI7
aI26
aI4
aI16
aI22
aI74
aI29
aI10
aI4
aI74
aI76
aI40
aI30
aI12
aI22
aI14
aI18
aI13
aI22
aI24
aI25
aI64
aI26
aI39
aI38
aI19
aI76
aI58
aI86
aI4
aI4
aI5
aI18
aI13
aI17
aI39
aI14
aI40
aI33
aI4
aI7
aI26
aI65
aI65
aI56
aI47
aI70
aI27
aI17
aI64
aI59
aI26
aI26
aI31
aI29
aI76
aI50
aI5
aI23
aI62
aI11
aI10
aI14
aI5
aI4
aI35
aI36
aI65
aI54
aI29
aI65
aI15
aI20
aI41
aI24
aI62
aI41
aI13
aI29
aI3
aI26
aI17
aI14
aI21
aI22
aI50
aI41
aI51
aI37
aI4
aI7
aI38
aI50
aI5
aI0
aI8
aI3
aI0
aI53
aI44
aI29
aI22
aI54
aI29
aI36
aI26
aI38
aI28
aI15
aI16
aI26
aI11
aI58
aI59
aI18
aI19
aI14
aI6
aI24
aI17
aI48
aI2
aI10
aI41
aI50
aI40
aI28
aI3
aI39
aI17
aI17
aI21
aI27
aI33
aI46
aI82
aI41
aI19
aI62
aI21
aI26
aI21
aI65
aI40
aI33
aI5
aI12
aI30
aI7
aI29
aI3
aI15
aI43
aI2
aI3
aI53
aI13
aI21
aI1
aI15
aI53
aI60
aI69
aI56
aI37
aI27
aI25
aI65
aI17
aI12
aI25
aI17
aI20
aI74
aI14
aI17
aI18
aI16
aI19
aI73
aI76
aI48
aI66
aI0
aI0
aI80
aI86
aI77
aI67
aI60
aI51
aI32
aI1
aI8
aI6
aI16
aI26
aI29
aI23
aI2
aI16
aI24
aI6
aI35
aI31
aI33
aI17
aI8
aI22
aI30
aI62
aI18
aI72
aI10
aI77
aI13
aI14
aI18
aI41
aI2
aI1
aI13
aI5
aI12
aI15
aI17
aI15
aI3
aI20
aI57
aI53
aI26
aI65
aI73
aI29
aI0
aI0
aI26
aI5
aI30
aI41
aI29
aI5
aI54
aI26
aI12
aI4
aI7
aI15
aI0
aI5
aI12
aI24
aI14
aI26
aI29
aI26
aI65
aI15
aI43
aI66
aI19
aI45
aI81
aI14
aI38
aI42
aI26
aI14
aI3
aI50
aI17
aI18
aI22
aI16
aI0
aI15
aI53
aI7
aI17
aI36
aI38
aI29
aI17
aI50
aI30
aI29
aI8
aI38
aI39
aI29
aI30
aI38
aI35
aI29
aI24
aI23
aI24
aI56
aI5
aI0
aI50
aI47
aI22
aI2
aI32
aI1
aI16
aI28
aI14
aI65
aI26
aI16
aI17
aI5
aI20
aI18
aI33
aI14
aI6
aI10
aI4
aI17
aI8
aI32
aI4
aI7
aI29
aI17
aI25
aI18
aI21
aI14
aI77
aI25
aI15
aI19
aI29
aI0
aI12
aI36
aI46
aI24
aI51
aI49
aI19
aI13
aI21
aI25
aI12
aI19
aI12
aI27
aI3
aI33
aI23
aI20
aI37
aI7
aI40
aI42
aI16
aI13
aI27
aI77
aI29
aI30
aI46
aI19
aI14
aI15
aI14
aI2
aI25
aI15
aI61
aI58
aI40
aI70
aI30
aI34
aI17
aI63
aI77
aI17
aI6
aI14
aI25
aI14
aI73
aI73
aI5
aI3
aI6
aI17
aI15
aI13
aI62
aI15
aI66
aI79
aI53
aI27
aI53
aI37
aI38
aI48
aI25
aI67
aI75
aI44
aI12
aI24
aI17
aI5
aI25
aI10
aI6
aI13
aI25
aI61
aI86
aI65
aI49
aI47
aI73
aI25
aI38
aI25
aI14
aI41
aI17
aI18
aI50
aI12
aI29
aI42
aI42
aI11
aI49
aI8
aI11
aI72
aI23
aI46
aI31
aI77
aI65
aI18
aI0
aI9
aI18
aI25
aI5
aI30
aI36
aI5
aI36
aI43
aI77
aI2
aI7
aI12
aI9
aI12
aI13
aI26
aI23
aI5
aI41
aI27
aI66
aI26
aI2
aI32
aI51
aI41
aI35
aI31
aI44
aI5
aI18
aI26
aI36
aI43
aI27
aI14
aI16
aI73
aI35
aI19
aI12
aI36
aI31
aI48
aI51
aI36
aI27
aI18
aI28
aI29
aI12
aI35
aI38
aI13
aI21
aI15
aI60
aI50
aI33
aI16
aI7
aI1
aI61
aI13
aI17
aI4
aI36
aI42
aI14
aI35
aI57
aI17
aI4
aI53
aI60
aI48
aI5
aI45
aI33
aI62
aI25
aI9
aI36
aI36
aI21
aI23
aI4
aI24
aI6
aI8
aI60
aI49
aI12
aI24
aI24
aI18
aI6
aI61
aI18
aI17
aI5
aI48
aI11
aI21
aI36
aI50
aI29
aI42
aI25
aI24
aI33
aI37
aI12
aI24
aI29
aI27
aI27
aI4
aI17
aI10
aI10
aI17
aI9
aI21
aI53
aI17
aI24
aI61
aI37
aI50
aI18
aI10
aI25
aI31
aI37
aI26
aI13
aI75
aI66
aI50
aI86
aI45
aI8
aI2
aI12
aI29
aI37
aI31
aI48
aI31
aI39
aI2
aI8
aI38
aI38
aI7
aI49
aI40
aI30
aI24
aI5
aI5
aI77
aI67
aI61
aI51
aI25
aI58
aI1
aI15
aI41
aI49
aI24
aI25
aI8
aI9
aI11
aI15
aI14
aI23
aI65
aI56
aI29
aI41
aI41
aI24
aI13
aI41
aI42
aI39
aI37
aI41
aI48
aI65
aI52
aI33
aI21
aI18
aI9
aI25
aI36
aI31
aI19
aI36
aI46
aI13
aI17
aI37
aI41
aI10
aI12
aI48
aI58
aI12
aI41
aI49
aI79
aI29
aI77
aI12
aI36
aI21
aI7
aI12
aI16
aI7
aI37
aI10
aI18
aI59
aI33
aI18
aI10
aI19
aI18
aI11
aI53
aI7
aI63
aI59
aI58
aI32
aI18
aI23
aI19
aI54
aI11
aI30
aI22
aI25
aI11
aI0
aI0
aI0
aI0
aI23
aI5
aI71
aI43
aI19
aI24
aI17
aI22
aI10
aI62
aI9
aI34
aI4
aI34
aI39
aI46
aI17
aI7
aI54
aI0
aI8
aI29
aI23
aI7
aI23
aI12
aI38
aI3
aI11
aI11
aI26
aI27
aI0
aI12
aI12
aI14
aI10
aI5
aI8
aI42
aI8
aI6
aI7
aI9
aI47
aI24
aI24
aI22
aI6
aI23
aI11
aI36
aI49
aI47
aI54
aI15
aI47
aI57
aI3
aI30
aI7
aI23
aI32
aI11
aI18
aI14
aI54
aI41
aI29
aI58
aI23
aI48
aI30
aI8
aI7
aI10
aI67
aI2
aI21
aI35
aI35
aI10
aI7
aI23
aI42
aI19
aI39
aI7
aI11
aI42
aI17
aI5
aI47
aI23
aI59
aI18
aI33
aI71
aI30
aI10
aI5
aI14
aI16
aI30
aI13
aI6
aI23
aI4
aI23
aI31
aI31
aI8
aI50
aI53
aI31
aI21
aI18
aI0
aI8
aI29
aI71
aI53
aI35
aI23
aI46
aI6
aI34
aI4
aI12
aI18
aI66
aI9
aI11
aI1
aI10
aI46
aI19
aI24
aI40
aI42
aI28
aI19
aI20
aI24
aI11
aI47
aI23
aI9
aI19
aI43
aI52
aI75
aI30
aI17
aI44
aI4
aI30
aI37
aI5
aI9
aI18
aI10
aI34
aI9
aI57
aI11
aI21
aI2
aI22
aI39
aI21
aI33
aI39
aI42
aI47
aI49
aI30
aI54
aI43
aI30
aI69
aI19
aI38
aI22
aI17
aI42
aI11
aI18
aI30
aI20
aI7
aI38
aI14
aI22
aI34
aI20
aI51
aI0
aI24
aI10
aI21
aI58
aI10
aI19
aI18
aI2
aI22
aI66
aI18
aI21
aI22
aI4
aI59
aI9
aI27
aI21
aI7
aI45
aI56
aI78
aI12
aI31
aI7
aI58
aI42
aI66
aI49
aI40
aI59
aI38
aI37
aI39
aI23
aI51
aI4
aI32
aI1
aI10
aI22
aI23
aI10
aI6
aI7
aI66
aI18
aI11
aI66
aI50
aI26
aI71
aI30
aI46
aI22
aI45
aI22
aI6
aI10
aI6
aI9
aI2
aI58
aI70
aI10
aI26
aI10
aI49
aI22
aI12
aI20
aI22
aI13
aI17
aI10
aI0
aI45
aI24
aI21
aI11
aI37
aI18
aI24
aI78
aI63
aI0
aI2
aI25
aI14
aI14
aI23
aI4
aI30
aI36
aI6
aI54
aI66
aI53
aI45
aI36
aI74
aI20
aI14
aI20
aI43
aI57
aI22
aI6
aI33
aI45
aI5
aI9
aI20
aI13
aI25
aI10
aI57
aI72
aI33
aI57
aI43
aI70
aI29
aI30
aI54
aI30
aI33
aI9
aI30
aI17
aI22
aI12
aI1
aI34
aI22
aI3
aI8
aI34
aI22
aI8
aI15
aI3
aI46
aI29
aI30
aI12
aI33
aI2
aI31
aI39
aI14
aI30
aI30
aI0
aI3
aI30
aI17
aI44
aI53
aI55
aI69
aI80
aI9
aI21
aI21
aI1
aI8
aI21
aI34
aI12
aI1
aI60
aI62
aI9
aI42
aI44
aI0
aI1
aI9
aI6
aI8
aI14
aI26
aI18
aI9
aI1
aI47
aI6
aI8
aI25
aI11
aI2
aI30
aI12
aI18
aI0
aI1
aI6
aI18
aI3
aI21
aI24
aI25
aI18
aI69
aI0
aI20
aI26
aI15
aI8
aI18
aI7
aI13
aI16
aI21
aI0
aI5
aI8
aI18
aI13
aI28
aI0
aI26
aI30
aI8
aI18
aI26
aI14
aI33
aI15
aI20
aI3
aI33
aI18
aI33
aI43
aI18
aI19
aI0
aI6
aI6
aI3
aI56
aI48
aI26
aI8
aI14
aI0
aI33
aI45
aI0
aI18
aI7
aI0
aI24
aI59
aI21
aI32
aI57
aI6
aI18
aI6
aI9
aI7
aI21
aI13
aI2
aI45
aI18
aI9
aI4
aI8
aI69
aI80
aI40
aI4
aI31
aI8
aI21
aI26
aI20
aI5
aI18
aI9
aI66
aI18
aI0
aI34
aI60
aI69
aI39
aI37
aI46
aI6
aI42
aI18
aI18
aI24
aI26
aI44
aI27
aI34
aI42
aI56
aI46
aI44
aI36
aI72
aI44
aI42
aI8
aI20
aI1
aI54
aI34
aI49
aI20
aI34
aI68
aI59
aI60
aI48
aI36
aI16
aI6
aI5
aI4
aI30
aI5
aI44
aI30
aI43
aI0
aI0
aI12
aI20
aI33
aI6
aI0
aI0
aI19
aI44
aI55
aI61
aI3
aI25
aI20
aI21
aI37
aI8
aI25
aI2
aI19
aI18
aI44
aI47
aI42
aI43
aI16
aI36
aI22
aI20
aI8
aI44
aI44
aI44
aI7
aI21
aI14
aI0
aI32
aI19
aI42
aI31
aI66
aI49
aI39
aI32
aI73
aI21
aI20
aI8
aI8
aI20
aI11
aI16
aI6
aI32
aI8
aI7
aI19
aI56
aI20
aI16
aI38
aI22
aI3
aI32
aI46
aI31
aI59
aI56
aI40
aI33
aI32
aI20
aI15
aI9
aI30
aI32
aI21
aI6
aI8
aI16
aI65
aI51
aI69
aI41
aI2
aI43
aI56
aI7
aI16
aI33
aI46
aI43
aI20
aI32
aI30
aI32
aI31
aI28
aI26
aI13
aI6
aI17
aI20
aI7
aI19
aI34
aI17
aI32
aI9
aI15
aI4
aI20
aI25
aI3
aI20
aI31
aI34
aI58
aI31
aI13
aI66
aI30
aI30
aI18
aI66
aI0
aI4
aI42
aI29
aI12
aI54
aI18
aI66
aI37
aI74
aI54
aI60
aI31
aI11
aI66
aI42
aI26
aI31
aI31
aI55
aI18
aI27
aI16
aI19
aI3
aI54
aI27
aI20
aI28
aI55
aI43
aI24
aI54
aI63
aI19
aI24
aI42
aI6
aI19
aI12
aI40
aI31
aI25
aI31
aI18
aI35
aI13
aI72
aI43
aI15
aI18
aI55
aI40
aI37
aI63
aI67
aI58
aI79
aI41
aI54
aI30
aI67
aI85
aI18
aI30
aI6
aI30
aI22
aI62
aI53
aI42
aI4
aI17
aI31
aI31
aI18
aI23
aI5
aI11
aI19
aI8
aI7
aI9
aI55
aI55
aI66
aI44
aI31
aI30
aI53
aI68
aI43
aI23
aI64
aI19
aI22
aI30
aI0
aI30
aI23
aI20
aI50
aI37
aI18
aI11
aI43
aI38
aI61
aI54
aI42
aI59
aI25
aI0
aI11
aI2
aI12
aI7
aI6
aI54
aI13
aI43
aI35
aI34
aI30
aI21
aI7
aI43
aI18
aI18
aI22
aI42
aI8
aI22
aI31
aI30
aI19
aI0
aI11
aI2
aI7
aI8
aI19
aI42
aI30
aI30
aI18
aI43
aI43
aI57
aI42
aI30
aI61
aI19
aI19
aI31
aI30
aI13
aI50
aI40
aI0
aI0
aI5
aI19
aI28
aI57
aI31
aI31
aI48
aI31
aI43
aI43
aI7
aI24
aI37
aI31
aI54
aI31
aI31
aI34
aI19
aI31
aI43
aI14
aI79
aI84
aI85
aI65
aI40
aI27
aI31
aI87
aI20
aI9
aI62
aI66
aI6
aI21
aI27
aI43
aI4
aI0
aI53
aI26
aI15
aI17
aI67
aI18
aI30
aI37
aI42
aI30
aI66
aI81
aI4
aI18
aI42
aI29
aI20
aI31
aI15
aI19
aI17
aI67
aI11
aI6
aI41
aI43
aI45
aI46
aI48
aI49
aI7
aI31
aI21
aI54
aI7
aI22
aI18
aI8
aI1
aI4
aI7
aI2
aI42
aI18
aI59
aI24
aI65
aI84
aI0
aI8
aI2
aI16
aI29
aI4
aI7
aI7
aI17
aI11
aI7
aI14
aI30
aI32
aI19
aI4
aI29
aI10
aI30
aI32
aI38
aI38
aI62
aI85
aI6
aI31
aI17
aI35
aI25
aI30
aI8
aI18
aI36
aI17
aI13
aI29
aI55
aI19
aI16
aI22
aI0
aI49
aI69
aI18
aI25
aI5
aI22
aI55
aI55
aI36
aI60
aI10
aI21
aI19
aI54
aI79
aI7
aI56
aI17
aI10
aI10
aI19
aI23
aI9
aI12
aI29
aI18
aI29
aI36
aI64
aI29
aI17
aI9
aI8
aI4
aI9
aI20
aI0
aI15
aI37
aI30
aI17
aI1
aI0
aI0
aI6
aI7
aI16
aI21
aI67
aI7
aI6
aI17
aI18
aI15
aI14
aI12
aI3
aI15
aI16
aI79
aI59
aI3
aI41
aI32
aI23
aI3
aI39
aI16
aI16
aI32
aI7
aI27
aI42
aI64
aI52
aI21
aI74
aI17
aI35
aI22
aI62
aI57
aI49
aI70
aI37
aI34
aI17
aI16
aI5
aI1
aI18
aI7
aI18
aI20
aI3
aI19
aI31
aI43
aI0
aI65
aI19
aI40
aI50
aI22
aI15
aI16
aI32
aI5
aI22
aI1
aI26
aI13
aI18
aI17
aI38
aI1
aI9
aI16
aI24
aI41
aI18
aI17
aI2
aI9
aI19
aI13
aI7
aI41
aI40
aI56
aI67
aI49
aI19
aI16
aI19
aI5
aI19
aI23
aI33
aI53
aI30
aI13
aI16
aI55
aI2
aI37
aI20
aI0
aI7
aI0
aI9
aI30
aI17
aI21
aI37
aI4
aI35
aI10
aI52
aI69
aI14
aI23
aI38
aI40
aI28
aI3
aI0
aI7
aI13
aI16
aI41
aI50
aI22
aI25
aI18
aI33
aI47
aI56
aI71
aI79
aI21
aI8
aI30
aI31
aI16
aI14
aI29
aI12
aI64
aI51
aI49
aI39
aI47
aI31
aI17
aI29
aI19
aI9
aI55
aI57
aI12
aI15
aI10
aI7
aI39
aI51
aI58
aI17
aI14
aI17
aI24
aI2
aI61
aI18
aI39
aI60
aI9
aI17
aI56
aI63
aI53
aI18
aI53
aI55
aI31
aI40
aI28
aI13
aI17
aI11
aI25
aI17
aI41
aI31
aI2
aI9
aI67
aI72
aI67
aI86
aI21
aI28
aI40
aI44
aI60
aI65
aI41
aI23
aI13
aI24
aI8
aI0
aI19
aI27
aI48
aI44
aI6
aI26
aI14
aI18
aI22
aI43
aI38
aI27
aI63
aI42
aI19
aI7
aI80
aI0
aI0
aI6
aI40
aI31
aI24
aI3
aI6
aI19
aI18
aI8
aI10
aI0
aI84
aI64
aI29
aI4
aI28
aI29
aI33
aI0
aI32
aI0
aI3
aI7
aI0
aI18
aI34
aI41
aI11
aI30
aI45
aI29
aI0
aI16
aI29
aI8
aI10
aI79
aI6
aI31
aI31
aI9
aI12
aI31
aI16
aI65
aI67
aI29
aI47
aI11
aI17
aI65
aI85
aI55
aI29
aI44
aI13
aI28
aI0
aI42
aI0
aI12
aI24
aI56
aI74
aI87
aI29
aI0
aI32
aI44
aI22
aI32
aI17
aI57
aI3
aI19
aI9
aI35
aI56
aI51
aI38
aI35
aI40
aI8
aI6
aI13
aI19
aI45
aI49
aI40
aI18
aI16
aI33
aI31
aI19
aI22
aI4
aI43
aI18
aI32
aI19
aI3
aI18
aI51
aI3
aI49
aI48
aI43
aI44
aI40
aI13
aI2
aI7
aI8
aI23
aI14
aI0
aI15
aI40
aI16
aI0
aI17
aI12
aI16
aI15
aI16
aI16
aI6
aI5
aI0
aI5
aI14
aI8
aI27
aI31
aI15
aI11
aI64
aI54
aI83
aI37
aI15
aI62
aI59
aI52
aI37
aI20
aI5
aI13
aI40
aI21
aI49
aI28
aI24
aI6
aI7
aI23
aI28
aI14
aI16
aI6
aI43
aI18
aI28
aI10
aI18
aI79
aI18
aI20
aI13
aI53
aI48
aI68
aI45
aI27
aI20
aI20
aI16
aI64
aI49
aI49
aI9
aI29
aI7
aI0
aI14
aI3
aI16
aI28
aI14
aI7
aI41
aI58
aI36
aI4
aI2
aI63
aI32
aI10
aI15
aI28
aI40
aI15
aI14
aI3
aI28
aI32
aI23
aI30
aI55
aI45
aI61
aI28
aI24
aI50
aI19
aI21
aI64
aI61
aI82
aI42
aI34
aI7
aI31
aI8
aI40
aI33
aI16
aI14
aI15
aI16
aI11
aI2
aI27
aI37
aI14
aI50
aI42
aI37
aI38
aI58
aI23
aI62
aI27
aI11
aI1
aI2
aI15
aI63
aI29
aI14
aI3
aI67
aI26
aI19
aI12
aI47
aI15
aI32
aI6
aI27
aI13
aI13
aI43
aI26
aI15
aI19
aI8
aI20
aI23
aI47
aI3
aI62
aI55
aI2
aI26
aI11
aI49
aI44
aI7
aI50
aI40
aI13
aI20
aI14
aI0
aI31
aI19
aI8
aI50
aI42
aI55
aI10
aI29
aI49
aI69
aI79
aI16
aI14
aI14
aI12
aI37
aI11
aI14
aI26
aI51
aI50
aI19
aI38
aI47
aI80
aI39
aI44
aI38
aI8
aI24
aI37
aI46
aI54
aI71
aI49
aI14
aI0
aI28
aI37
aI11
aI35
aI14
aI57
aI1
aI14
aI37
aI62
aI25
aI14
aI14
aI31
aI15
aI32
aI14
aI7
aI51
aI26
aI12
aI28
aI20
aI26
aI17
aI14
aI38
aI21
aI6
aI16
aI38
aI4
aI67
aI38
aI24
aI12
aI34
aI22
aI1
aI2
aI50
aI14
aI35
aI27
aI21
aI20
aI15
aI5
aI15
aI14
aI7
aI15
aI21
aI24
aI55
aI59
aI1
aI36
aI8
aI12
aI32
aI13
aI11
aI69
aI8
aI32
aI24
aI12
aI34
aI12
aI36
aI20
aI24
aI45
aI21
aI31
aI19
aI36
aI11
aI19
aI8
aI71
aI60
aI40
aI12
aI19
aI12
aI48
aI11
aI14
aI19
aI36
aI51
aI30
aI12
aI32
aI48
aI38
aI25
aI13
aI57
aI29
aI18
aI24
aI19
aI23
aI37
aI22
aI7
aI7
aI14
aI33
aI14
aI14
aI19
aI24
aI24
aI22
aI25
aI17
aI4
aI49
aI11
aI14
aI8
aI8
aI19
aI32
aI24
aI31
aI48
aI29
aI48
aI36
aI29
aI18
aI30
aI49
aI6
aI60
aI1
aI2
aI2
aI2
aI13
aI9
aI20
aI37
aI21
aI30
aI23
aI12
aI12
aI5
aI35
aI79
aI58
aI7
aI25
aI18
aI24
aI55
aI24
aI22
aI24
aI21
aI10
aI6
aI14
aI56
aI36
aI6
aI15
aI9
aI63
aI31
aI38
aI15
aI21
aI27
aI12
aI36
aI33
aI23
aI18
aI32
aI9
aI80
aI48
aI24
aI32
aI21
aI16
aI3
aI38
aI32
aI36
aI21
aI13
aI31
aI31
aI20
aI11
aI36
aI56
aI19
aI23
aI43
aI23
aI48
aI67
aI34
aI11
aI24
aI32
aI15
aI11
aI55
aI9
aI19
aI20
aI20
aI72
aI80
aI8
aI28
aI37
aI1
aI15
aI1
aI5
aI28
aI8
aI36
aI35
aI8
aI2
aI68
aI20
aI62
aI44
aI11
aI13
aI14
aI5
aI35
aI23
aI45
aI3
aI26
aI0
aI5
aI55
aI12
aI20
aI20
aI18
aI15
aI68
aI61
aI44
aI25
aI18
aI34
aI35
aI22
aI20
aI14
aI9
aI37
aI11
aI25
aI0
aI5
aI9
aI11
aI36
aI31
aI21
aI4
aI6
aI47
aI23
aI3
aI18
aI29
aI0
aI0
aI5
aI27
aI47
aI19
aI12
aI11
aI13
aI14
aI0
aI0
aI14
aI14
aI13
aI68
aI38
aI28
aI7
aI7
aI20
aI13
aI12
aI44
aI45
aI38
aI20
aI46
aI10
aI20
aI20
aI80
aI32
aI8
aI21
aI34
aI20
aI7
aI12
aI35
aI12
aI11
aI1
aI14
aI12
aI13
aI34
aI14
aI32
aI56
aI58
aI43
aI11
aI11
aI22
aI10
aI23
aI44
aI1
aI23
aI20
aI31
aI23
aI44
aI16
aI55
aI11
aI35
aI34
aI8
aI34
aI35
aI34
aI19
aI62
aI2
aI5
aI58
aI49
aI1
aI12
aI34
aI56
aI20
aI20
aI34
aI47
aI28
aI72
aI0
aI0
aI32
aI33
aI46
aI36
aI18
aI7
aI12
aI67
aI8
aI8
aI22
aI10
aI35
aI22
aI46
aI7
aI7
aI36
aI3
aI8
aI22
aI32
aI11
aI12
aI0
aI12
aI2
aI0
aI21
aI35
aI61
aI31
aI11
aI0
aI0
aI3
aI17
aI58
aI9
aI12
aI10
aI0
aI0
aI0
aI18
aI9
aI23
aI20
aI10
aI12
aI11
aI58
aI38
aI45
aI27
aI2
aI8
aI15
aI11
aI25
aI14
aI0
aI22
aI22
aI22
aI10
aI47
aI44
aI27
aI10
aI5
aI22
aI34
aI22
aI7
aI34
aI20
aI13
aI23
aI32
aI22
aI19
aI48
aI5
aI7
aI8
aI44
aI20
aI21
aI22
aI44
aI14
aI6
aI50
aI34
aI13
aI8
aI11
aI24
aI30
aI68
aI59
aI11
aI60
aI10
aI44
aI44
aI32
aI36
aI2
aI23
aI13
aI8
aI23
aI33
aI54
aI38
aI28
aI5
aI8
aI14
aI17
aI33
aI0
aI0
aI8
aI32
aI9
aI33
aI26
aI17
aI21
aI32
aI20
aI21
aI68
aI56
aI55
aI9
aI33
aI5
aI8
aI19
aI45
aI57
aI45
aI9
aI57
aI44
aI40
aI68
aI20
aI9
aI19
aI34
aI57
aI44
aI0
aI4
aI9
aI2
aI10
aI4
aI33
aI21
aI68
aI80
aI58
aI29
aI31
aI20
aI3
aI80
aI8
aI8
aI14
aI8
aI44
aI22
aI10
aI32
aI9
aI20
aI8
aI9
aI11
aI15
aI9
aI10
aI18
aI21
aI9
aI33
aI9
aI20
aI9
aI56
aI26
aI33
aI20
aI32
aI11
aI12
aI24
aI8
aI34
aI20
aI13
aI12
aI9
aI8
aI10
aI33
aI20
aI32
aI45
aI80
aI32
aI8
aI14
aI47
aI21
aI11
aI10
aI3
aI32
aI0
aI41
aI81
aI50
aI81
aI41
aI7
aI4
aI21
aI7
aI7
aI35
aI16
aI29
aI45
aI17
aI47
aI10
aI8
aI17
aI20
aI2
aI5
aI9
aI18
aI33
aI48
aI66
aI68
aI21
aI21
aI34
aI45
aI8
aI56
aI81
aI84
aI31
aI10
aI32
aI12
aI22
aI55
aI9
aI55
aI84
aI2
aI57
aI17
aI44
aI9
aI5
aI4
aI58
aI0
aI0
aI1
aI7
aI8
aI44
aI32
aI21
aI10
aI5
aI19
aI55
aI12
aI86
aI20
aI31
aI20
aI13
aI20
aI8
aI10
aI28
aI32
aI39
aI9
aI7
aI43
aI12
aI38
aI17
aI56
aI61
aI59
aI26
aI33
aI20
aI56
aI56
aI34
aI9
aI82
aI19
aI51
aI19
aI56
aI45
aI0
aI0
aI0
aI54
aI81
aI29
aI32
aI9
aI13
aI9
aI21
aI1
aI20
aI24
aI9
aI7
aI20
aI26
aI58
aI43
aI66
aI79
aI32
aI9
aI3
aI18
aI10
aI55
aI45
aI7
aI15
aI16
aI22
aI20
aI21
aI41
aI70
aI57
aI78
aI7
aI28
aI32
aI32
aI21
aI12
aI44
aI20
aI69
aI43
aI11
aI7
aI20
aI36
aI56
aI20
aI12
aI21
aI8
aI7
aI19
aI7
aI20
aI10
aI33
aI32
aI9
aI2
aI31
aI8
aI9
aI12
aI44
aI11
aI7
aI8
aI68
aI75
aI30
aI21
aI56
aI33
aI14
aI23
aI35
aI8
aI0
aI7
aI10
aI40
aI9
aI37
aI42
aI33
aI37
aI7
aI31
aI7
aI15
aI3
aI30
aI6
aI35
aI38
aI5
aI24
aI27
aI5
aI18
aI17
aI10
aI20
aI13
aI31
aI9
aI55
aI20
aI19
aI47
aI15
aI14
aI33
aI30
aI51
aI37
aI55
aI31
aI21
aI21
aI45
aI9
aI26
aI59
aI7
aI21
aI81
aI14
aI31
aI36
aI16
aI22
aI24
aI26
aI13
aI26
aI2
aI22
aI18
aI47
aI12
aI26
aI21
aI42
aI70
aI4
aI31
aI19
aI23
aI1
aI13
aI33
aI0
aI13
aI17
aI69
aI55
aI24
aI21
aI2
aI7
aI6
aI28
aI33
aI60
aI52
aI76
aI9
aI9
aI21
aI2
aI31
aI21
aI19
aI58
aI19
aI55
aI83
aI45
aI55
aI38
aI24
aI21
aI7
aI18
aI4
aI9
aI21
aI31
aI61
aI54
aI45
aI57
aI7
aI57
aI18
aI10
aI39
aI42
aI41
aI34
aI19
aI42
aI21
aI18
aI9
aI8
aI4
aI18
aI6
aI4
aI9
aI7
aI43
aI22
aI22
aI34
aI15
aI12
aI62
aI21
aI20
aI7
aI26
aI65
aI54
aI81
aI36
aI31
aI86
aI30
aI1
aI12
aI5
aI13
aI4
aI0
aI2
aI8
aI42
aI49
aI50
aI51
aI7
aI1
aI16
aI7
aI29
aI22
aI13
aI36
aI42
aI6
aI82
aI4
aI27
aI57
aI57
aI38
aI60
aI69
aI9
aI63
aI54
aI57
aI51
aI27
aI9
aI27
aI15
aI9
aI21
aI5
aI21
aI16
aI33
aI37
aI33
aI50
aI0
aI30
aI0
aI18
aI34
aI3
aI5
aI4
aI15
aI33
aI9
aI2
aI11
aI5
aI34
aI38
aI40
aI13
aI34
aI16
aI41
aI26
aI36
aI63
aI4
aI10
aI43
aI27
aI19
aI50
aI27
aI5
aI10
aI10
aI12
aI13
aI13
aI12
aI4
aI27
aI18
aI10
aI39
aI33
aI26
aI6
aI32
aI27
aI17
aI28
aI6
aI66
aI7
aI12
aI4
aI29
aI10
aI57
aI27
aI41
aI3
aI9
aI16
aI14
aI40
aI33
aI50
aI13
aI18
aI9
aI10
aI10
aI6
aI39
aI27
aI60
aI58
aI10
aI0
aI8
aI0
aI0
aI25
aI19
aI18
aI10
aI26
aI9
aI13
aI2
aI28
aI4
aI14
aI33
aI53
aI7
aI18
aI9
aI21
aI0
aI10
aI26
aI11
aI5
aI26
aI34
aI13
aI17
aI10
aI38
aI60
aI29
aI3
aI12
aI48
aI3
aI58
aI31
aI3
aI9
aI12
aI21
aI28
aI54
aI59
aI52
aI22
aI6
aI9
aI13
aI18
aI21
aI34
aI9
aI46
aI23
aI15
aI21
aI60
aI7
aI13
aI16
aI6
aI53
aI57
aI25
aI9
aI37
aI38
aI9
aI5
aI53
aI70
aI4
aI33
aI22
aI20
aI4
aI24
aI81
aI11
aI24
aI37
aI9
aI1
aI6
aI34
aI39
aI22
aI3
aI33
aI39
aI22
aI13
aI10
aI34
aI60
aI33
aI51
aI1
aI48
aI72
aI48
aI8
aI9
aI23
aI13
aI31
aI53
aI34
aI30
aI7
aI9
aI70
aI40
aI29
aI11
aI10
aI5
aI46
aI18
aI14
aI14
aI33
aI10
aI8
aI21
aI26
aI14
aI10
aI17
aI24
aI6
aI26
aI10
aI16
aI18
aI9
aI21
aI11
aI29
aI49
aI13
aI25
aI31
aI17
aI14
aI9
aI4
aI35
aI21
aI26
aI9
aI7
aI1
aI63
aI4
aI27
aI7
aI1
aI70
aI51
aI46
aI39
aI27
aI18
aI57
aI82
aI12
aI18
aI45
aI23
aI44
aI60
aI75
aI70
aI17
aI18
aI6
aI18
aI4
aI9
aI24
aI32
aI46
aI0
aI16
aI29
aI9
aI15
aI21
aI3
aI2
aI23
aI13
aI58
aI69
aI71
aI65
aI36
aI75
aI21
aI23
aI4
aI10
aI30
aI34
aI24
aI3
aI14
aI46
aI2
aI15
aI0
aI16
aI9
aI22
aI12
aI22
aI16
aI34
aI15
aI22
aI10
aI17
aI29
aI36
aI38
aI72
aI28
aI24
aI82
aI10
aI25
aI27
aI2
aI5
aI16
aI36
aI67
aI57
aI82
aI29
aI5
aI0
aI1
aI22
aI50
aI42
aI31
aI6
aI57
aI0
aI1
aI54
aI21
aI17
aI27
aI2
aI17
aI17
aI26
aI33
aI17
aI29
aI11
aI23
aI4
aI27
aI23
aI29
aI9
aI57
aI4
aI37
aI17
aI33
aI69
aI15
aI5
aI12
aI24
aI70
aI18
aI46
aI34
aI82
aI17
aI5
aI16
aI0
aI30
aI26
aI1
aI4
aI8
aI23
aI14
aI21
aI17
aI3
aI0
aI12
aI57
aI57
aI23
aI25
aI15
aI10
aI9
aI2
aI25
aI14
aI26
aI10
aI5
aI6
aI66
aI17
aI20
aI3
aI10
aI11
aI82
aI40
aI28
aI34
aI28
aI22
aI60
aI9
aI3
aI28
aI71
aI42
aI31
aI74
aI16
aI3
aI9
aI7
aI11
aI9
aI10
aI63
aI25
aI10
aI22
aI6
aI29
aI57
aI23
aI62
aI14
aI12
aI13
aI20
aI25
aI13
aI11
aI10
aI5
aI17
aI22
aI9
aI15
aI10
aI1
aI9
aI34
aI33
aI51
aI57
aI82
aI57
aI58
aI46
aI17
aI37
aI8
aI27
aI39
aI15
aI14
aI23
aI23
aI24
aI69
aI18
aI11
aI69
aI1
aI22
aI42
aI39
aI67
aI26
aI11
aI29
aI82
aI58
aI0
aI38
aI33
aI2
aI14
aI10
aI48
aI12
aI9
aI45
aI34
aI50
aI81
aI21
aI69
aI39
aI78
aI49
aI17
aI34
aI46
aI70
aI16
aI16
aI27
aI10
aI22
aI14
aI82
aI31
aI3
aI33
aI18
aI21
aI15
aI27
aI25
aI1
aI8
aI15
aI58
aI46
aI56
aI21
aI60
aI27
aI8
aI10
aI12
aI23
aI3
aI34
aI28
aI82
aI4
aI0
aI21
aI55
aI59
aI24
aI12
aI54
aI26
aI22
aI33
aI0
aI0
aI0
aI19
aI23
aI58
aI10
aI10
aI24
aI48
aI64
aI77
aI68
aI38
aI9
aI13
aI36
aI37
aI22
aI18
aI24
aI49
aI28
aI4
aI11
aI22
aI12
aI16
aI25
aI13
aI48
aI45
aI34
aI13
aI22
aI26
aI7
aI13
aI12
aI49
aI2
aI22
aI24
aI36
aI58
aI24
aI3
aI12
aI2
aI37
aI12
aI24
aI24
aI46
aI46
aI12
aI48
aI22
aI12
aI13
aI34
aI24
aI49
aI24
aI6
aI14
aI12
aI24
aI12
aI11
aI36
aI24
aI20
aI2
aI20
aI30
aI24
aI48
aI4
aI2
aI12
aI12
aI24
aI1
aI8
aI12
aI36
aI12
aI8
aI3
aI22
aI11
aI21
aI36
aI11
aI83
aI23
aI22
aI39
aI47
aI46
aI12
aI45
aI23
aI6
aI11
aI22
aI23
aI47
aI59
aI52
aI35
aI6
aI41
aI67
aI36
aI28
aI19
aI27
aI38
aI11
aI63
aI65
aI59
aI52
aI72
aI73
aI12
aI38
aI24
aI74
aI61
aI35
aI23
aI1
aI71
aI23
aI32
aI26
aI12
aI2
aI5
aI12
aI0
aI13
aI83
aI59
aI7
aI23
aI59
aI12
aI16
aI5
aI24
aI15
aI11
aI3
aI10
aI4
aI28
aI11
aI39
aI19
aI14
aI8
aI19
aI13
aI40
aI7
aI21
aI42
aI63
aI11
aI40
aI31
aI18
aI13
aI23
aI23
aI40
aI38
aI5
aI13
aI11
aI16
aI4
aI4
aI15
aI39
aI28
aI22
aI16
aI19
aI22
aI1
aI21
aI16
aI59
aI42
aI48
aI16
aI52
aI30
aI11
aI11
aI37
aI35
aI16
aI15
aI13
aI29
aI47
aI23
aI16
aI11
aI16
aI47
aI13
aI34
aI28
aI11
aI27
aI4
aI15
aI7
aI16
aI16
aI83
aI15
aI11
aI11
aI35
aI34
aI21
aI19
aI17
aI23
aI17
aI21
aI48
aI42
aI28
aI17
aI37
aI85
aI11
aI4
aI7
aI19
aI8
aI23
aI12
aI11
aI1
aI12
aI32
aI23
aI59
aI37
aI47
aI12
aI12
aI59
aI7
aI11
aI11
aI47
aI13
aI11
aI37
aI11
aI15
aI13
aI11
aI9
aI6
aI7
aI35
aI25
aI9
aI17
aI25
aI59
aI7
aI11
aI29
aI7
aI7
aI35
aI9
aI23
aI35
aI1
aI47
aI51
aI47
aI56
aI23
aI23
aI43
aI71
aI7
aI6
aI39
aI20
aI8
aI13
aI51
aI23
aI17
aI38
aI32
aI32
aI25
aI35
aI47
aI7
aI30
aI15
aI14
aI15
aI26
aI7
aI26
aI11
aI11
aI23
aI26
aI28
aI56
aI59
aI41
aI70
aI57
aI78
aI35
aI5
aI19
aI42
aI17
aI18
aI22
aI47
aI5
aI11
aI14
aI9
aI11
aI13
aI24
aI14
aI44
aI27
aI17
aI13
aI2
aI35
aI33
aI25
aI28
aI31
aI2
aI25
aI11
aI12
aI15
aI9
aI3
aI18
aI6
aI24
aI42
aI18
aI47
aI36
aI3
aI84
aI4
aI11
aI31
aI11
aI6
aI29
aI2
aI28
aI19
aI6
aI29
aI74
aI7
aI40
aI6
aI47
aI85
aI38
aI15
aI11
aI41
aI1
aI71
aI11
aI42
aI36
aI0
aI42
aI11
aI23
aI19
aI14
aI37
aI8
aI6
aI7
aI71
aI47
aI19
aI8
aI24
aI21
aI55
aI59
aI83
aI43
aI19
aI59
aI13
aI17
aI37
aI6
aI9
a.