(lp0
I34
aI48
aI46
aI27
aI48
aI27
aI54
aI0
aI5
aI20
aI46
aI40
aI0
aI0
aI0
aI0
aI29
aI52
aI20
aI4
aI29
aI58
aI33
aI37
aI5
aI26
aI16
aI19
aI17
aI42
aI60
aI81
aI28
aI16
aI38
aI86
aI28
aI34
aI42
aI4
aI11
aI35
aI42
aI56
aI11
aI11
aI35
aI76
aI76
aI84
aI23
aI7
aI46
aI8
aI51
aI51
aI61
aI34
aI62
aI61
aI28
aI61
aI77
aI9
aI24
aI56
aI43
aI2
aI15
aI36
aI5
aI5
aI8
aI23
aI23
aI28
aI42
aI4
aI46
aI11
aI14
aI11
aI16
aI6
aI26
aI49
aI55
aI58
aI62
aI0
aI0
aI0
aI0
aI0
aI7
aI19
aI34
aI6
aI12
aI28
aI35
aI43
aI7
aI33
aI39
aI17
aI25
aI38
aI14
aI51
aI69
aI70
aI36
aI45
aI78
aI43
aI58
aI2
aI28
aI33
aI35
aI53
aI57
aI85
aI4
aI63
aI52
aI10
aI67
aI79
aI51
aI33
aI36
aI85
aI53
aI21
aI32
aI36
aI3
aI0
aI0
aI0
aI0
aI13
aI17
aI26
aI27
aI52
aI63
aI22
aI87
aI23
aI25
aI35
aI36
aI3
aI16
aI9
aI0
aI25
aI28
aI0
aI0
aI0
aI41
aI82
aI37
aI42
aI26
aI6
aI56
aI58
aI64
aI25
aI70
aI57
aI10
aI19
aI43
aI15
aI79
aI29
aI52
aI20
aI43
aI33
aI44
aI32
aI6
aI34
aI22
aI70
aI33
aI20
aI47
a.