(lp0
I2
aI2
aI3
aI5
aI4
aI3
aI3
aI2
aI1
aI3
aI4
aI3
aI1
aI2
aI3
aI5
aI4
aI3
aI2
aI2
aI4
aI2
aI1
aI3
aI3
aI7
aI5
aI1
aI6
aI4
aI4
aI8
aI6
aI1
aI4
aI1
aI2
aI5
aI2
aI5
aI3
aI1
aI4
aI2
aI6
aI3
aI1
aI4
aI1
aI4
aI4
aI1
aI1
aI4
aI4
aI2
aI2
aI2
aI1
aI3
aI1
aI1
aI1
aI2
aI1
aI1
aI3
aI1
a.